Archive member included because of file (symbol)

C:\Users\TURBO9~1\AppData\Local\Temp\arduino_cache_432467\core\core_487b1ced4e7b37e8d402730d0433b7e0.a(HardwareSerial.cpp.o)
                              C:\Users\TURBO9~1\AppData\Local\Temp\arduino_build_805463\core\board.cpp.o (HardwareSerial::HardwareSerial(usart_dev*, unsigned char, unsigned char))
C:\Users\TURBO9~1\AppData\Local\Temp\arduino_cache_432467\core\core_487b1ced4e7b37e8d402730d0433b7e0.a(Print.cpp.o)
                              C:\Users\TURBO9~1\AppData\Local\Temp\arduino_cache_432467\core\core_487b1ced4e7b37e8d402730d0433b7e0.a(HardwareSerial.cpp.o) (Print::write(void const*, unsigned long))
C:\Users\TURBO9~1\AppData\Local\Temp\arduino_cache_432467\core\core_487b1ced4e7b37e8d402730d0433b7e0.a(cxxabi-compat.cpp.o)
                              C:\Users\TURBO9~1\AppData\Local\Temp\arduino_cache_432467\core\core_487b1ced4e7b37e8d402730d0433b7e0.a(HardwareSerial.cpp.o) (__cxa_pure_virtual)
C:\Users\TURBO9~1\AppData\Local\Temp\arduino_cache_432467\core\core_487b1ced4e7b37e8d402730d0433b7e0.a(ext_interrupts.cpp.o)
                              C:\Users\TURBO9~1\AppData\Local\Temp\arduino_build_805463\sketch\blue_pill_keyboard.ino.cpp.o (attachInterrupt(unsigned char, void (*)(), ExtIntTriggerMode))
C:\Users\TURBO9~1\AppData\Local\Temp\arduino_cache_432467\core\core_487b1ced4e7b37e8d402730d0433b7e0.a(adc.c.o)
                              C:\Users\TURBO9~1\AppData\Local\Temp\arduino_build_805463\core\wirish\boards.cpp.o (adc_set_sample_rate)
C:\Users\TURBO9~1\AppData\Local\Temp\arduino_cache_432467\core\core_487b1ced4e7b37e8d402730d0433b7e0.a(adc_f1.c.o)
                              (__irq_adc)
C:\Users\TURBO9~1\AppData\Local\Temp\arduino_cache_432467\core\core_487b1ced4e7b37e8d402730d0433b7e0.a(dma_f1.c.o)
                              (__irq_dma1_channel1)
C:\Users\TURBO9~1\AppData\Local\Temp\arduino_cache_432467\core\core_487b1ced4e7b37e8d402730d0433b7e0.a(exc.S.o)
                              (__exc_nmi)
C:\Users\TURBO9~1\AppData\Local\Temp\arduino_cache_432467\core\core_487b1ced4e7b37e8d402730d0433b7e0.a(exti.c.o)
                              C:\Users\TURBO9~1\AppData\Local\Temp\arduino_cache_432467\core\core_487b1ced4e7b37e8d402730d0433b7e0.a(ext_interrupts.cpp.o) (exti_attach_callback)
C:\Users\TURBO9~1\AppData\Local\Temp\arduino_cache_432467\core\core_487b1ced4e7b37e8d402730d0433b7e0.a(exti_f1.c.o)
                              C:\Users\TURBO9~1\AppData\Local\Temp\arduino_cache_432467\core\core_487b1ced4e7b37e8d402730d0433b7e0.a(exti.c.o) (exti_select)
C:\Users\TURBO9~1\AppData\Local\Temp\arduino_cache_432467\core\core_487b1ced4e7b37e8d402730d0433b7e0.a(flash.c.o)
                              C:\Users\TURBO9~1\AppData\Local\Temp\arduino_build_805463\core\wirish\boards.cpp.o (flash_set_latency)
C:\Users\TURBO9~1\AppData\Local\Temp\arduino_cache_432467\core\core_487b1ced4e7b37e8d402730d0433b7e0.a(gpio_f1.c.o)
                              C:\Users\TURBO9~1\AppData\Local\Temp\arduino_build_805463\core\wirish\boards_setup.cpp.o (gpio_init_all)
C:\Users\TURBO9~1\AppData\Local\Temp\arduino_cache_432467\core\core_487b1ced4e7b37e8d402730d0433b7e0.a(i2c_f1.c.o)
                              (__irq_i2c1_ev)
C:\Users\TURBO9~1\AppData\Local\Temp\arduino_cache_432467\core\core_487b1ced4e7b37e8d402730d0433b7e0.a(nvic.c.o)
                              C:\Users\TURBO9~1\AppData\Local\Temp\arduino_cache_432467\core\core_487b1ced4e7b37e8d402730d0433b7e0.a(i2c_f1.c.o) (nvic_irq_set_priority)
C:\Users\TURBO9~1\AppData\Local\Temp\arduino_cache_432467\core\core_487b1ced4e7b37e8d402730d0433b7e0.a(rcc.c.o)
                              C:\Users\TURBO9~1\AppData\Local\Temp\arduino_build_805463\core\wirish\boards.cpp.o (rcc_switch_sysclk)
C:\Users\TURBO9~1\AppData\Local\Temp\arduino_cache_432467\core\core_487b1ced4e7b37e8d402730d0433b7e0.a(rcc_f1.c.o)
                              C:\Users\TURBO9~1\AppData\Local\Temp\arduino_build_805463\core\wirish\boards.cpp.o (rcc_configure_pll)
C:\Users\TURBO9~1\AppData\Local\Temp\arduino_cache_432467\core\core_487b1ced4e7b37e8d402730d0433b7e0.a(isrs.S.o)
                              (__stm32reservedexception7)
C:\Users\TURBO9~1\AppData\Local\Temp\arduino_cache_432467\core\core_487b1ced4e7b37e8d402730d0433b7e0.a(vector_table.S.o)
                              (__stm32_vector_table)
C:\Users\TURBO9~1\AppData\Local\Temp\arduino_cache_432467\core\core_487b1ced4e7b37e8d402730d0433b7e0.a(systick.c.o)
                              C:\Users\TURBO9~1\AppData\Local\Temp\arduino_build_805463\core\wirish\boards.cpp.o (systick_init)
C:\Users\TURBO9~1\AppData\Local\Temp\arduino_cache_432467\core\core_487b1ced4e7b37e8d402730d0433b7e0.a(timer.c.o)
                              C:\Users\TURBO9~1\AppData\Local\Temp\arduino_build_805463\core\wirish\boards.cpp.o (timer_foreach)
C:\Users\TURBO9~1\AppData\Local\Temp\arduino_cache_432467\core\core_487b1ced4e7b37e8d402730d0433b7e0.a(usart.c.o)
                              C:\Users\TURBO9~1\AppData\Local\Temp\arduino_cache_432467\core\core_487b1ced4e7b37e8d402730d0433b7e0.a(HardwareSerial.cpp.o) (usart_init)
C:\Users\TURBO9~1\AppData\Local\Temp\arduino_cache_432467\core\core_487b1ced4e7b37e8d402730d0433b7e0.a(usart_f1.c.o)
                              C:\Users\TURBO9~1\AppData\Local\Temp\arduino_cache_432467\core\core_487b1ced4e7b37e8d402730d0433b7e0.a(HardwareSerial.cpp.o) (usart_config_gpios_async)
C:\Users\TURBO9~1\AppData\Local\Temp\arduino_cache_432467\core\core_487b1ced4e7b37e8d402730d0433b7e0.a(usart_private.c.o)
                              C:\Users\TURBO9~1\AppData\Local\Temp\arduino_cache_432467\core\core_487b1ced4e7b37e8d402730d0433b7e0.a(usart_f1.c.o) (_usart_clock_freq)
C:\Users\TURBO9~1\AppData\Local\Temp\arduino_cache_432467\core\core_487b1ced4e7b37e8d402730d0433b7e0.a(usb.c.o)
                              (__irq_usb_lp_can_rx0)
C:\Users\TURBO9~1\AppData\Local\Temp\arduino_cache_432467\core\core_487b1ced4e7b37e8d402730d0433b7e0.a(usb_cdcacm.c.o)
                              C:\Users\TURBO9~1\AppData\Local\Temp\arduino_cache_432467\core\core_487b1ced4e7b37e8d402730d0433b7e0.a(usb.c.o) (User_Standard_Requests)
C:\Users\TURBO9~1\AppData\Local\Temp\arduino_cache_432467\core\core_487b1ced4e7b37e8d402730d0433b7e0.a(usb_reg_map.c.o)
                              C:\Users\TURBO9~1\AppData\Local\Temp\arduino_cache_432467\core\core_487b1ced4e7b37e8d402730d0433b7e0.a(usb_cdcacm.c.o) (usb_set_ep_rx_count)
C:\Users\TURBO9~1\AppData\Local\Temp\arduino_cache_432467\core\core_487b1ced4e7b37e8d402730d0433b7e0.a(usb_core.c.o)
                              C:\Users\TURBO9~1\AppData\Local\Temp\arduino_cache_432467\core\core_487b1ced4e7b37e8d402730d0433b7e0.a(usb_cdcacm.c.o) (Standard_GetDescriptorData)
C:\Users\TURBO9~1\AppData\Local\Temp\arduino_cache_432467\core\core_487b1ced4e7b37e8d402730d0433b7e0.a(usb_init.c.o)
                              C:\Users\TURBO9~1\AppData\Local\Temp\arduino_cache_432467\core\core_487b1ced4e7b37e8d402730d0433b7e0.a(usb.c.o) (pInformation)
C:\Users\TURBO9~1\AppData\Local\Temp\arduino_cache_432467\core\core_487b1ced4e7b37e8d402730d0433b7e0.a(usb_mem.c.o)
                              C:\Users\TURBO9~1\AppData\Local\Temp\arduino_cache_432467\core\core_487b1ced4e7b37e8d402730d0433b7e0.a(usb_core.c.o) (UserToPMABufferCopy)
C:\Users\TURBO9~1\AppData\Local\Temp\arduino_cache_432467\core\core_487b1ced4e7b37e8d402730d0433b7e0.a(usb_regs.c.o)
                              C:\Users\TURBO9~1\AppData\Local\Temp\arduino_cache_432467\core\core_487b1ced4e7b37e8d402730d0433b7e0.a(usb_core.c.o) (SetEPTxStatus)
C:\Users\TURBO9~1\AppData\Local\Temp\arduino_cache_432467\core\core_487b1ced4e7b37e8d402730d0433b7e0.a(util.c.o)
                              C:\Users\TURBO9~1\AppData\Local\Temp\arduino_cache_432467\core\core_487b1ced4e7b37e8d402730d0433b7e0.a(exc.S.o) (__error)
C:\Users\TURBO9~1\AppData\Local\Temp\arduino_cache_432467\core\core_487b1ced4e7b37e8d402730d0433b7e0.a(main.cpp.o)
                              (main)
C:\Users\TURBO9~1\AppData\Local\Temp\arduino_cache_432467\core\core_487b1ced4e7b37e8d402730d0433b7e0.a(usb_serial.cpp.o)
                              C:\Users\TURBO9~1\AppData\Local\Temp\arduino_build_805463\core\wirish\boards_setup.cpp.o (USBSerial::begin())
C:\Users\TURBO9~1\AppData\Local\Temp\arduino_cache_432467\core\core_487b1ced4e7b37e8d402730d0433b7e0.a(wirish_time.cpp.o)
                              C:\Users\TURBO9~1\AppData\Local\Temp\arduino_build_805463\sketch\blue_pill_keyboard.ino.cpp.o (delayMicroseconds(unsigned long))
C:\Users\TURBO9~1\AppData\Local\Temp\arduino_cache_432467\core\core_487b1ced4e7b37e8d402730d0433b7e0.a(hooks.c.o)
                              C:\Users\TURBO9~1\AppData\Local\Temp\arduino_cache_432467\core\core_487b1ced4e7b37e8d402730d0433b7e0.a(wirish_time.cpp.o) (yield)
C:\Users\TURBO9~1\AppData\Local\Temp\arduino_cache_432467\core\core_487b1ced4e7b37e8d402730d0433b7e0.a(bkp_f1.c.o)
                              C:\Users\TURBO9~1\AppData\Local\Temp\arduino_cache_432467\core\core_487b1ced4e7b37e8d402730d0433b7e0.a(usb_serial.cpp.o) (bkp_init)
C:\Users\TURBO9~1\AppData\Local\Temp\arduino_cache_432467\core\core_487b1ced4e7b37e8d402730d0433b7e0.a(dma.c.o)
                              C:\Users\TURBO9~1\AppData\Local\Temp\arduino_cache_432467\core\core_487b1ced4e7b37e8d402730d0433b7e0.a(dma_f1.c.o) (_dma_addr_type)
C:\Users\TURBO9~1\AppData\Local\Temp\arduino_cache_432467\core\core_487b1ced4e7b37e8d402730d0433b7e0.a(gpio.c.o)
                              C:\Users\TURBO9~1\AppData\Local\Temp\arduino_cache_432467\core\core_487b1ced4e7b37e8d402730d0433b7e0.a(gpio_f1.c.o) (gpio_init)
C:\Users\TURBO9~1\AppData\Local\Temp\arduino_cache_432467\core\core_487b1ced4e7b37e8d402730d0433b7e0.a(i2c.c.o)
                              C:\Users\TURBO9~1\AppData\Local\Temp\arduino_cache_432467\core\core_487b1ced4e7b37e8d402730d0433b7e0.a(i2c_f1.c.o) (_i2c_irq_handler)
c:/users/turbo9000/appdata/local/arduino15/packages/arduino/tools/arm-none-eabi-gcc/4.8.3-2014q1/bin/../lib/gcc/arm-none-eabi/4.8.3/armv7-m\libgcc.a(_arm_addsubdf3.o)
                              C:\Users\TURBO9~1\AppData\Local\Temp\arduino_cache_432467\core\core_487b1ced4e7b37e8d402730d0433b7e0.a(Print.cpp.o) (__aeabi_dsub)
c:/users/turbo9000/appdata/local/arduino15/packages/arduino/tools/arm-none-eabi-gcc/4.8.3-2014q1/bin/../lib/gcc/arm-none-eabi/4.8.3/armv7-m\libgcc.a(_arm_muldivdf3.o)
                              C:\Users\TURBO9~1\AppData\Local\Temp\arduino_cache_432467\core\core_487b1ced4e7b37e8d402730d0433b7e0.a(Print.cpp.o) (__aeabi_dmul)
c:/users/turbo9000/appdata/local/arduino15/packages/arduino/tools/arm-none-eabi-gcc/4.8.3-2014q1/bin/../lib/gcc/arm-none-eabi/4.8.3/armv7-m\libgcc.a(_arm_cmpdf2.o)
                              C:\Users\TURBO9~1\AppData\Local\Temp\arduino_cache_432467\core\core_487b1ced4e7b37e8d402730d0433b7e0.a(Print.cpp.o) (__aeabi_dcmplt)
c:/users/turbo9000/appdata/local/arduino15/packages/arduino/tools/arm-none-eabi-gcc/4.8.3-2014q1/bin/../lib/gcc/arm-none-eabi/4.8.3/armv7-m\libgcc.a(_arm_fixdfsi.o)
                              C:\Users\TURBO9~1\AppData\Local\Temp\arduino_cache_432467\core\core_487b1ced4e7b37e8d402730d0433b7e0.a(Print.cpp.o) (__aeabi_d2iz)
c:/users/turbo9000/appdata/local/arduino15/packages/arduino/tools/arm-none-eabi-gcc/4.8.3-2014q1/bin/../lib/gcc/arm-none-eabi/4.8.3/armv7-m\libgcc.a(_aeabi_uldivmod.o)
                              C:\Users\TURBO9~1\AppData\Local\Temp\arduino_cache_432467\core\core_487b1ced4e7b37e8d402730d0433b7e0.a(Print.cpp.o) (__aeabi_uldivmod)
c:/users/turbo9000/appdata/local/arduino15/packages/arduino/tools/arm-none-eabi-gcc/4.8.3-2014q1/bin/../lib/gcc/arm-none-eabi/4.8.3/armv7-m\libgcc.a(_fixdfdi.o)
                              C:\Users\TURBO9~1\AppData\Local\Temp\arduino_cache_432467\core\core_487b1ced4e7b37e8d402730d0433b7e0.a(Print.cpp.o) (__aeabi_d2lz)
c:/users/turbo9000/appdata/local/arduino15/packages/arduino/tools/arm-none-eabi-gcc/4.8.3-2014q1/bin/../lib/gcc/arm-none-eabi/4.8.3/armv7-m\libgcc.a(_fixunsdfdi.o)
                              c:/users/turbo9000/appdata/local/arduino15/packages/arduino/tools/arm-none-eabi-gcc/4.8.3-2014q1/bin/../lib/gcc/arm-none-eabi/4.8.3/armv7-m\libgcc.a(_fixdfdi.o) (__aeabi_d2ulz)
c:/users/turbo9000/appdata/local/arduino15/packages/arduino/tools/arm-none-eabi-gcc/4.8.3-2014q1/bin/../lib/gcc/arm-none-eabi/4.8.3/armv7-m\libgcc.a(bpabi.o)
                              c:/users/turbo9000/appdata/local/arduino15/packages/arduino/tools/arm-none-eabi-gcc/4.8.3-2014q1/bin/../lib/gcc/arm-none-eabi/4.8.3/armv7-m\libgcc.a(_aeabi_uldivmod.o) (__gnu_uldivmod_helper)
c:/users/turbo9000/appdata/local/arduino15/packages/arduino/tools/arm-none-eabi-gcc/4.8.3-2014q1/bin/../lib/gcc/arm-none-eabi/4.8.3/armv7-m\libgcc.a(_dvmd_tls.o)
                              c:/users/turbo9000/appdata/local/arduino15/packages/arduino/tools/arm-none-eabi-gcc/4.8.3-2014q1/bin/../lib/gcc/arm-none-eabi/4.8.3/armv7-m\libgcc.a(_aeabi_uldivmod.o) (__aeabi_ldiv0)
c:/users/turbo9000/appdata/local/arduino15/packages/arduino/tools/arm-none-eabi-gcc/4.8.3-2014q1/bin/../lib/gcc/arm-none-eabi/4.8.3/armv7-m\libgcc.a(_arm_fixunsdfsi.o)
                              c:/users/turbo9000/appdata/local/arduino15/packages/arduino/tools/arm-none-eabi-gcc/4.8.3-2014q1/bin/../lib/gcc/arm-none-eabi/4.8.3/armv7-m\libgcc.a(_fixunsdfdi.o) (__aeabi_d2uiz)
c:/users/turbo9000/appdata/local/arduino15/packages/arduino/tools/arm-none-eabi-gcc/4.8.3-2014q1/bin/../lib/gcc/arm-none-eabi/4.8.3/armv7-m\libgcc.a(_divdi3.o)
                              c:/users/turbo9000/appdata/local/arduino15/packages/arduino/tools/arm-none-eabi-gcc/4.8.3-2014q1/bin/../lib/gcc/arm-none-eabi/4.8.3/armv7-m\libgcc.a(bpabi.o) (__divdi3)
c:/users/turbo9000/appdata/local/arduino15/packages/arduino/tools/arm-none-eabi-gcc/4.8.3-2014q1/bin/../lib/gcc/arm-none-eabi/4.8.3/armv7-m\libgcc.a(_udivdi3.o)
                              c:/users/turbo9000/appdata/local/arduino15/packages/arduino/tools/arm-none-eabi-gcc/4.8.3-2014q1/bin/../lib/gcc/arm-none-eabi/4.8.3/armv7-m\libgcc.a(bpabi.o) (__udivdi3)
c:/users/turbo9000/appdata/local/arduino15/packages/arduino/tools/arm-none-eabi-gcc/4.8.3-2014q1/bin/../lib/gcc/arm-none-eabi/4.8.3/../../../../arm-none-eabi/lib/armv7-m\libc.a(lib_a-errno.o)
                              C:\Users\TURBO9~1\AppData\Local\Temp\arduino_build_805463\core\wirish\syscalls.c.o (__errno)
c:/users/turbo9000/appdata/local/arduino15/packages/arduino/tools/arm-none-eabi-gcc/4.8.3-2014q1/bin/../lib/gcc/arm-none-eabi/4.8.3/../../../../arm-none-eabi/lib/armv7-m\libc.a(lib_a-exit.o)
                              c:/users/turbo9000/appdata/local/arduino15/packages/arduino/tools/arm-none-eabi-gcc/4.8.3-2014q1/bin/../lib/gcc/arm-none-eabi/4.8.3/../../../../arm-none-eabi/lib/armv7-m/crt0.o (exit)
c:/users/turbo9000/appdata/local/arduino15/packages/arduino/tools/arm-none-eabi-gcc/4.8.3-2014q1/bin/../lib/gcc/arm-none-eabi/4.8.3/../../../../arm-none-eabi/lib/armv7-m\libc.a(lib_a-impure.o)
                              c:/users/turbo9000/appdata/local/arduino15/packages/arduino/tools/arm-none-eabi-gcc/4.8.3-2014q1/bin/../lib/gcc/arm-none-eabi/4.8.3/../../../../arm-none-eabi/lib/armv7-m\libc.a(lib_a-exit.o) (_global_impure_ptr)
c:/users/turbo9000/appdata/local/arduino15/packages/arduino/tools/arm-none-eabi-gcc/4.8.3-2014q1/bin/../lib/gcc/arm-none-eabi/4.8.3/../../../../arm-none-eabi/lib/armv7-m\libc.a(lib_a-init.o)
                              c:/users/turbo9000/appdata/local/arduino15/packages/arduino/tools/arm-none-eabi-gcc/4.8.3-2014q1/bin/../lib/gcc/arm-none-eabi/4.8.3/../../../../arm-none-eabi/lib/armv7-m/crt0.o (__libc_init_array)
c:/users/turbo9000/appdata/local/arduino15/packages/arduino/tools/arm-none-eabi-gcc/4.8.3-2014q1/bin/../lib/gcc/arm-none-eabi/4.8.3/../../../../arm-none-eabi/lib/armv7-m\libc.a(lib_a-memset.o)
                              c:/users/turbo9000/appdata/local/arduino15/packages/arduino/tools/arm-none-eabi-gcc/4.8.3-2014q1/bin/../lib/gcc/arm-none-eabi/4.8.3/../../../../arm-none-eabi/lib/armv7-m/crt0.o (memset)
c:/users/turbo9000/appdata/local/arduino15/packages/arduino/tools/arm-none-eabi-gcc/4.8.3-2014q1/bin/../lib/gcc/arm-none-eabi/4.8.3/../../../../arm-none-eabi/lib/armv7-m\libc.a(lib_a-strlen.o)
                              C:\Users\TURBO9~1\AppData\Local\Temp\arduino_cache_432467\core\core_487b1ced4e7b37e8d402730d0433b7e0.a(Print.cpp.o) (strlen)
c:/users/turbo9000/appdata/local/arduino15/packages/arduino/tools/arm-none-eabi-gcc/4.8.3-2014q1/bin/../lib/gcc/arm-none-eabi/4.8.3/../../../../arm-none-eabi/lib/armv7-m\libc.a(lib_a-__call_atexit.o)
                              c:/users/turbo9000/appdata/local/arduino15/packages/arduino/tools/arm-none-eabi-gcc/4.8.3-2014q1/bin/../lib/gcc/arm-none-eabi/4.8.3/../../../../arm-none-eabi/lib/armv7-m\libc.a(lib_a-exit.o) (__call_exitprocs)
c:/users/turbo9000/appdata/local/arduino15/packages/arduino/tools/arm-none-eabi-gcc/4.8.3-2014q1/bin/../lib/gcc/arm-none-eabi/4.8.3/../../../../arm-none-eabi/lib/armv7-m\libc.a(lib_a-atexit.o)
                              c:/users/turbo9000/appdata/local/arduino15/packages/arduino/tools/arm-none-eabi-gcc/4.8.3-2014q1/bin/../lib/gcc/arm-none-eabi/4.8.3/../../../../arm-none-eabi/lib/armv7-m\libc.a(lib_a-__call_atexit.o) (atexit)
c:/users/turbo9000/appdata/local/arduino15/packages/arduino/tools/arm-none-eabi-gcc/4.8.3-2014q1/bin/../lib/gcc/arm-none-eabi/4.8.3/../../../../arm-none-eabi/lib/armv7-m\libc.a(lib_a-fini.o)
                              c:/users/turbo9000/appdata/local/arduino15/packages/arduino/tools/arm-none-eabi-gcc/4.8.3-2014q1/bin/../lib/gcc/arm-none-eabi/4.8.3/../../../../arm-none-eabi/lib/armv7-m\libc.a(lib_a-__call_atexit.o) (__libc_fini_array)
c:/users/turbo9000/appdata/local/arduino15/packages/arduino/tools/arm-none-eabi-gcc/4.8.3-2014q1/bin/../lib/gcc/arm-none-eabi/4.8.3/../../../../arm-none-eabi/lib/armv7-m\libc.a(lib_a-__atexit.o)
                              c:/users/turbo9000/appdata/local/arduino15/packages/arduino/tools/arm-none-eabi-gcc/4.8.3-2014q1/bin/../lib/gcc/arm-none-eabi/4.8.3/../../../../arm-none-eabi/lib/armv7-m\libc.a(lib_a-atexit.o) (__register_exitproc)

Allocating common symbols
Common symbol       size              file

SaveRState          0x2               C:\Users\TURBO9~1\AppData\Local\Temp\arduino_cache_432467\core\core_487b1ced4e7b37e8d402730d0433b7e0.a(usb.c.o)
SaveState           0x2               C:\Users\TURBO9~1\AppData\Local\Temp\arduino_cache_432467\core\core_487b1ced4e7b37e8d402730d0433b7e0.a(usb_init.c.o)
pProperty           0x4               C:\Users\TURBO9~1\AppData\Local\Temp\arduino_cache_432467\core\core_487b1ced4e7b37e8d402730d0433b7e0.a(usb_init.c.o)
EPindex             0x1               C:\Users\TURBO9~1\AppData\Local\Temp\arduino_cache_432467\core\core_487b1ced4e7b37e8d402730d0433b7e0.a(usb_init.c.o)
SaveTState          0x2               C:\Users\TURBO9~1\AppData\Local\Temp\arduino_cache_432467\core\core_487b1ced4e7b37e8d402730d0433b7e0.a(usb.c.o)
systick_uptime_millis
                    0x4               C:\Users\TURBO9~1\AppData\Local\Temp\arduino_cache_432467\core\core_487b1ced4e7b37e8d402730d0433b7e0.a(systick.c.o)
Device_Info         0x1c              C:\Users\TURBO9~1\AppData\Local\Temp\arduino_cache_432467\core\core_487b1ced4e7b37e8d402730d0433b7e0.a(usb_init.c.o)
pUser_Standard_Requests
                    0x4               C:\Users\TURBO9~1\AppData\Local\Temp\arduino_cache_432467\core\core_487b1ced4e7b37e8d402730d0433b7e0.a(usb_init.c.o)
StatusInfo          0x2               C:\Users\TURBO9~1\AppData\Local\Temp\arduino_cache_432467\core\core_487b1ced4e7b37e8d402730d0433b7e0.a(usb_core.c.o)
pInformation        0x4               C:\Users\TURBO9~1\AppData\Local\Temp\arduino_cache_432467\core\core_487b1ced4e7b37e8d402730d0433b7e0.a(usb_init.c.o)
ResumeS             0x2               C:\Users\TURBO9~1\AppData\Local\Temp\arduino_cache_432467\core\core_487b1ced4e7b37e8d402730d0433b7e0.a(usb.c.o)
wInterrupt_Mask     0x2               C:\Users\TURBO9~1\AppData\Local\Temp\arduino_cache_432467\core\core_487b1ced4e7b37e8d402730d0433b7e0.a(usb_init.c.o)

Discarded input sections

 .text          0x00000000        0x0 c:/users/turbo9000/appdata/local/arduino15/packages/arduino/tools/arm-none-eabi-gcc/4.8.3-2014q1/bin/../lib/gcc/arm-none-eabi/4.8.3/armv7-m/crti.o
 .data          0x00000000        0x0 c:/users/turbo9000/appdata/local/arduino15/packages/arduino/tools/arm-none-eabi-gcc/4.8.3-2014q1/bin/../lib/gcc/arm-none-eabi/4.8.3/armv7-m/crti.o
 .bss           0x00000000        0x0 c:/users/turbo9000/appdata/local/arduino15/packages/arduino/tools/arm-none-eabi-gcc/4.8.3-2014q1/bin/../lib/gcc/arm-none-eabi/4.8.3/armv7-m/crti.o
 .data          0x00000000        0x4 c:/users/turbo9000/appdata/local/arduino15/packages/arduino/tools/arm-none-eabi-gcc/4.8.3-2014q1/bin/../lib/gcc/arm-none-eabi/4.8.3/armv7-m/crtbegin.o
 .text          0x00000000       0x74 c:/users/turbo9000/appdata/local/arduino15/packages/arduino/tools/arm-none-eabi-gcc/4.8.3-2014q1/bin/../lib/gcc/arm-none-eabi/4.8.3/../../../../arm-none-eabi/lib/armv7-m/crt0.o
 .data          0x00000000        0x0 c:/users/turbo9000/appdata/local/arduino15/packages/arduino/tools/arm-none-eabi-gcc/4.8.3-2014q1/bin/../lib/gcc/arm-none-eabi/4.8.3/../../../../arm-none-eabi/lib/armv7-m/crt0.o
 .bss           0x00000000        0x0 c:/users/turbo9000/appdata/local/arduino15/packages/arduino/tools/arm-none-eabi-gcc/4.8.3-2014q1/bin/../lib/gcc/arm-none-eabi/4.8.3/../../../../arm-none-eabi/lib/armv7-m/crt0.o
 .ARM.extab     0x00000000        0x0 c:/users/turbo9000/appdata/local/arduino15/packages/arduino/tools/arm-none-eabi-gcc/4.8.3-2014q1/bin/../lib/gcc/arm-none-eabi/4.8.3/../../../../arm-none-eabi/lib/armv7-m/crt0.o
 .ARM.exidx     0x00000000        0x8 c:/users/turbo9000/appdata/local/arduino15/packages/arduino/tools/arm-none-eabi-gcc/4.8.3-2014q1/bin/../lib/gcc/arm-none-eabi/4.8.3/../../../../arm-none-eabi/lib/armv7-m/crt0.o
 .text          0x00000000        0x0 C:\Users\TURBO9~1\AppData\Local\Temp\arduino_build_805463\sketch\blue_pill_keyboard.ino.cpp.o
 .data          0x00000000        0x0 C:\Users\TURBO9~1\AppData\Local\Temp\arduino_build_805463\sketch\blue_pill_keyboard.ino.cpp.o
 .bss           0x00000000        0x0 C:\Users\TURBO9~1\AppData\Local\Temp\arduino_build_805463\sketch\blue_pill_keyboard.ino.cpp.o
 .text._Z16sendSpecificByteh
                0x00000000       0xb0 C:\Users\TURBO9~1\AppData\Local\Temp\arduino_build_805463\sketch\blue_pill_keyboard.ino.cpp.o
 .text          0x00000000        0x0 C:\Users\TURBO9~1\AppData\Local\Temp\arduino_build_805463\core\board.cpp.o
 .data          0x00000000        0x0 C:\Users\TURBO9~1\AppData\Local\Temp\arduino_build_805463\core\board.cpp.o
 .bss           0x00000000        0x0 C:\Users\TURBO9~1\AppData\Local\Temp\arduino_build_805463\core\board.cpp.o
 .USER_FLASH    0x00000000       0x19 C:\Users\TURBO9~1\AppData\Local\Temp\arduino_build_805463\core\board.cpp.o
 .text          0x00000000        0x0 C:\Users\TURBO9~1\AppData\Local\Temp\arduino_build_805463\core\wirish\boards.cpp.o
 .data          0x00000000        0x0 C:\Users\TURBO9~1\AppData\Local\Temp\arduino_build_805463\core\wirish\boards.cpp.o
 .bss           0x00000000        0x0 C:\Users\TURBO9~1\AppData\Local\Temp\arduino_build_805463\core\wirish\boards.cpp.o
 .text._Z9boardInitv
                0x00000000        0x2 C:\Users\TURBO9~1\AppData\Local\Temp\arduino_build_805463\core\wirish\boards.cpp.o
 .text._Z12boardUsesPinh
                0x00000000       0x1c C:\Users\TURBO9~1\AppData\Local\Temp\arduino_build_805463\core\wirish\boards.cpp.o
 .text          0x00000000        0x0 C:\Users\TURBO9~1\AppData\Local\Temp\arduino_build_805463\core\wirish\boards_setup.cpp.o
 .data          0x00000000        0x0 C:\Users\TURBO9~1\AppData\Local\Temp\arduino_build_805463\core\wirish\boards_setup.cpp.o
 .bss           0x00000000        0x0 C:\Users\TURBO9~1\AppData\Local\Temp\arduino_build_805463\core\wirish\boards_setup.cpp.o
 .data          0x00000000        0x0 C:\Users\TURBO9~1\AppData\Local\Temp\arduino_build_805463\core\wirish\start.S.o
 .bss           0x00000000        0x0 C:\Users\TURBO9~1\AppData\Local\Temp\arduino_build_805463\core\wirish\start.S.o
 .ARM.extab     0x00000000        0x0 C:\Users\TURBO9~1\AppData\Local\Temp\arduino_build_805463\core\wirish\start.S.o
 .text          0x00000000        0x0 C:\Users\TURBO9~1\AppData\Local\Temp\arduino_build_805463\core\wirish\start_c.c.o
 .data          0x00000000        0x0 C:\Users\TURBO9~1\AppData\Local\Temp\arduino_build_805463\core\wirish\start_c.c.o
 .bss           0x00000000        0x0 C:\Users\TURBO9~1\AppData\Local\Temp\arduino_build_805463\core\wirish\start_c.c.o
 .text          0x00000000        0x0 C:\Users\TURBO9~1\AppData\Local\Temp\arduino_build_805463\core\wirish\syscalls.c.o
 .data          0x00000000        0x0 C:\Users\TURBO9~1\AppData\Local\Temp\arduino_build_805463\core\wirish\syscalls.c.o
 .bss           0x00000000        0x0 C:\Users\TURBO9~1\AppData\Local\Temp\arduino_build_805463\core\wirish\syscalls.c.o
 .text._sbrk    0x00000000       0x44 C:\Users\TURBO9~1\AppData\Local\Temp\arduino_build_805463\core\wirish\syscalls.c.o
 .text._open    0x00000000        0x8 C:\Users\TURBO9~1\AppData\Local\Temp\arduino_build_805463\core\wirish\syscalls.c.o
 .text._close   0x00000000        0x4 C:\Users\TURBO9~1\AppData\Local\Temp\arduino_build_805463\core\wirish\syscalls.c.o
 .text._fstat   0x00000000        0xa C:\Users\TURBO9~1\AppData\Local\Temp\arduino_build_805463\core\wirish\syscalls.c.o
 .text._isatty  0x00000000        0x4 C:\Users\TURBO9~1\AppData\Local\Temp\arduino_build_805463\core\wirish\syscalls.c.o
 .text.isatty   0x00000000        0x4 C:\Users\TURBO9~1\AppData\Local\Temp\arduino_build_805463\core\wirish\syscalls.c.o
 .text._lseek   0x00000000        0x6 C:\Users\TURBO9~1\AppData\Local\Temp\arduino_build_805463\core\wirish\syscalls.c.o
 .text.getch    0x00000000        0x4 C:\Users\TURBO9~1\AppData\Local\Temp\arduino_build_805463\core\wirish\syscalls.c.o
 .text._read    0x00000000        0xe C:\Users\TURBO9~1\AppData\Local\Temp\arduino_build_805463\core\wirish\syscalls.c.o
 .text.putch    0x00000000        0x2 C:\Users\TURBO9~1\AppData\Local\Temp\arduino_build_805463\core\wirish\syscalls.c.o
 .text.cgets    0x00000000       0x78 C:\Users\TURBO9~1\AppData\Local\Temp\arduino_build_805463\core\wirish\syscalls.c.o
 .text._write   0x00000000       0x1a C:\Users\TURBO9~1\AppData\Local\Temp\arduino_build_805463\core\wirish\syscalls.c.o
 .text.fgets    0x00000000        0xc C:\Users\TURBO9~1\AppData\Local\Temp\arduino_build_805463\core\wirish\syscalls.c.o
 .bss.pbreak.4444
                0x00000000        0x4 C:\Users\TURBO9~1\AppData\Local\Temp\arduino_build_805463\core\wirish\syscalls.c.o
 .group         0x00000000        0x8 C:\Users\TURBO9~1\AppData\Local\Temp\arduino_cache_432467\core\core_487b1ced4e7b37e8d402730d0433b7e0.a(HardwareSerial.cpp.o)
 .text          0x00000000        0x0 C:\Users\TURBO9~1\AppData\Local\Temp\arduino_cache_432467\core\core_487b1ced4e7b37e8d402730d0433b7e0.a(HardwareSerial.cpp.o)
 .data          0x00000000        0x0 C:\Users\TURBO9~1\AppData\Local\Temp\arduino_cache_432467\core\core_487b1ced4e7b37e8d402730d0433b7e0.a(HardwareSerial.cpp.o)
 .bss           0x00000000        0x0 C:\Users\TURBO9~1\AppData\Local\Temp\arduino_cache_432467\core\core_487b1ced4e7b37e8d402730d0433b7e0.a(HardwareSerial.cpp.o)
 .text._ZN14HardwareSerial5beginEmh
                0x00000000       0x78 C:\Users\TURBO9~1\AppData\Local\Temp\arduino_cache_432467\core\core_487b1ced4e7b37e8d402730d0433b7e0.a(HardwareSerial.cpp.o)
 .text._ZN14HardwareSerial5beginEm
                0x00000000        0x6 C:\Users\TURBO9~1\AppData\Local\Temp\arduino_cache_432467\core\core_487b1ced4e7b37e8d402730d0433b7e0.a(HardwareSerial.cpp.o)
 .text._ZN14HardwareSerial3endEv
                0x00000000        0x6 C:\Users\TURBO9~1\AppData\Local\Temp\arduino_cache_432467\core\core_487b1ced4e7b37e8d402730d0433b7e0.a(HardwareSerial.cpp.o)
 .text._ZN14HardwareSerial17availableForWriteEv
                0x00000000       0x12 C:\Users\TURBO9~1\AppData\Local\Temp\arduino_cache_432467\core\core_487b1ced4e7b37e8d402730d0433b7e0.a(HardwareSerial.cpp.o)
 .rodata._ZTV6Stream
                0x00000000       0x28 C:\Users\TURBO9~1\AppData\Local\Temp\arduino_cache_432467\core\core_487b1ced4e7b37e8d402730d0433b7e0.a(HardwareSerial.cpp.o)
 .text          0x00000000        0x0 C:\Users\TURBO9~1\AppData\Local\Temp\arduino_cache_432467\core\core_487b1ced4e7b37e8d402730d0433b7e0.a(Print.cpp.o)
 .data          0x00000000        0x0 C:\Users\TURBO9~1\AppData\Local\Temp\arduino_cache_432467\core\core_487b1ced4e7b37e8d402730d0433b7e0.a(Print.cpp.o)
 .bss           0x00000000        0x0 C:\Users\TURBO9~1\AppData\Local\Temp\arduino_cache_432467\core\core_487b1ced4e7b37e8d402730d0433b7e0.a(Print.cpp.o)
 .text._ZN5Print5printERK6String
                0x00000000       0x10 C:\Users\TURBO9~1\AppData\Local\Temp\arduino_cache_432467\core\core_487b1ced4e7b37e8d402730d0433b7e0.a(Print.cpp.o)
 .text._ZN5Print5printEc
                0x00000000        0xa C:\Users\TURBO9~1\AppData\Local\Temp\arduino_cache_432467\core\core_487b1ced4e7b37e8d402730d0433b7e0.a(Print.cpp.o)
 .text._ZN5Print5printEPKc
                0x00000000        0xa C:\Users\TURBO9~1\AppData\Local\Temp\arduino_cache_432467\core\core_487b1ced4e7b37e8d402730d0433b7e0.a(Print.cpp.o)
 .text._ZN5Print5printEPK19__FlashStringHelper
                0x00000000        0x4 C:\Users\TURBO9~1\AppData\Local\Temp\arduino_cache_432467\core\core_487b1ced4e7b37e8d402730d0433b7e0.a(Print.cpp.o)
 .text._ZN5Print5printERK9Printable
                0x00000000       0x10 C:\Users\TURBO9~1\AppData\Local\Temp\arduino_cache_432467\core\core_487b1ced4e7b37e8d402730d0433b7e0.a(Print.cpp.o)
 .text._ZN5Print7printlnEv
                0x00000000       0x18 C:\Users\TURBO9~1\AppData\Local\Temp\arduino_cache_432467\core\core_487b1ced4e7b37e8d402730d0433b7e0.a(Print.cpp.o)
 .text._ZN5Print7printlnERK6String
                0x00000000       0x14 C:\Users\TURBO9~1\AppData\Local\Temp\arduino_cache_432467\core\core_487b1ced4e7b37e8d402730d0433b7e0.a(Print.cpp.o)
 .text._ZN5Print7printlnEc
                0x00000000       0x14 C:\Users\TURBO9~1\AppData\Local\Temp\arduino_cache_432467\core\core_487b1ced4e7b37e8d402730d0433b7e0.a(Print.cpp.o)
 .text._ZN5Print7printlnEPKc
                0x00000000       0x14 C:\Users\TURBO9~1\AppData\Local\Temp\arduino_cache_432467\core\core_487b1ced4e7b37e8d402730d0433b7e0.a(Print.cpp.o)
 .text._ZN5Print7printlnEPK19__FlashStringHelper
                0x00000000       0x14 C:\Users\TURBO9~1\AppData\Local\Temp\arduino_cache_432467\core\core_487b1ced4e7b37e8d402730d0433b7e0.a(Print.cpp.o)
 .text._ZN5Print7printlnERK9Printable
                0x00000000       0x14 C:\Users\TURBO9~1\AppData\Local\Temp\arduino_cache_432467\core\core_487b1ced4e7b37e8d402730d0433b7e0.a(Print.cpp.o)
 .text._ZN5Print11printNumberEyh
                0x00000000       0x84 C:\Users\TURBO9~1\AppData\Local\Temp\arduino_cache_432467\core\core_487b1ced4e7b37e8d402730d0433b7e0.a(Print.cpp.o)
 .text._ZN5Print5printExi
                0x00000000       0x32 C:\Users\TURBO9~1\AppData\Local\Temp\arduino_cache_432467\core\core_487b1ced4e7b37e8d402730d0433b7e0.a(Print.cpp.o)
 .text._ZN5Print5printEii
                0x00000000       0x12 C:\Users\TURBO9~1\AppData\Local\Temp\arduino_cache_432467\core\core_487b1ced4e7b37e8d402730d0433b7e0.a(Print.cpp.o)
 .text._ZN5Print7printlnEii
                0x00000000       0x14 C:\Users\TURBO9~1\AppData\Local\Temp\arduino_cache_432467\core\core_487b1ced4e7b37e8d402730d0433b7e0.a(Print.cpp.o)
 .text._ZN5Print5printEli
                0x00000000       0x12 C:\Users\TURBO9~1\AppData\Local\Temp\arduino_cache_432467\core\core_487b1ced4e7b37e8d402730d0433b7e0.a(Print.cpp.o)
 .text._ZN5Print7printlnEli
                0x00000000       0x1c C:\Users\TURBO9~1\AppData\Local\Temp\arduino_cache_432467\core\core_487b1ced4e7b37e8d402730d0433b7e0.a(Print.cpp.o)
 .text._ZN5Print7printlnExi
                0x00000000       0x1a C:\Users\TURBO9~1\AppData\Local\Temp\arduino_cache_432467\core\core_487b1ced4e7b37e8d402730d0433b7e0.a(Print.cpp.o)
 .text._ZN5Print5printEyi
                0x00000000        0xa C:\Users\TURBO9~1\AppData\Local\Temp\arduino_cache_432467\core\core_487b1ced4e7b37e8d402730d0433b7e0.a(Print.cpp.o)
 .text._ZN5Print5printEhi
                0x00000000       0x14 C:\Users\TURBO9~1\AppData\Local\Temp\arduino_cache_432467\core\core_487b1ced4e7b37e8d402730d0433b7e0.a(Print.cpp.o)
 .text._ZN5Print7printlnEhi
                0x00000000       0x14 C:\Users\TURBO9~1\AppData\Local\Temp\arduino_cache_432467\core\core_487b1ced4e7b37e8d402730d0433b7e0.a(Print.cpp.o)
 .text._ZN5Print5printEji
                0x00000000       0x14 C:\Users\TURBO9~1\AppData\Local\Temp\arduino_cache_432467\core\core_487b1ced4e7b37e8d402730d0433b7e0.a(Print.cpp.o)
 .text._ZN5Print7printlnEji
                0x00000000       0x14 C:\Users\TURBO9~1\AppData\Local\Temp\arduino_cache_432467\core\core_487b1ced4e7b37e8d402730d0433b7e0.a(Print.cpp.o)
 .text._ZN5Print5printEmi
                0x00000000       0x14 C:\Users\TURBO9~1\AppData\Local\Temp\arduino_cache_432467\core\core_487b1ced4e7b37e8d402730d0433b7e0.a(Print.cpp.o)
 .text._ZN5Print7printlnEmi
                0x00000000       0x1e C:\Users\TURBO9~1\AppData\Local\Temp\arduino_cache_432467\core\core_487b1ced4e7b37e8d402730d0433b7e0.a(Print.cpp.o)
 .text._ZN5Print7printlnEyi
                0x00000000       0x1c C:\Users\TURBO9~1\AppData\Local\Temp\arduino_cache_432467\core\core_487b1ced4e7b37e8d402730d0433b7e0.a(Print.cpp.o)
 .text._ZN5Print10printFloatEdh
                0x00000000      0x158 C:\Users\TURBO9~1\AppData\Local\Temp\arduino_cache_432467\core\core_487b1ced4e7b37e8d402730d0433b7e0.a(Print.cpp.o)
 .text._ZN5Print5printEdi
                0x00000000        0xa C:\Users\TURBO9~1\AppData\Local\Temp\arduino_cache_432467\core\core_487b1ced4e7b37e8d402730d0433b7e0.a(Print.cpp.o)
 .text._ZN5Print7printlnEdi
                0x00000000       0x1c C:\Users\TURBO9~1\AppData\Local\Temp\arduino_cache_432467\core\core_487b1ced4e7b37e8d402730d0433b7e0.a(Print.cpp.o)
 .rodata._ZTV5Print
                0x00000000       0x18 C:\Users\TURBO9~1\AppData\Local\Temp\arduino_cache_432467\core\core_487b1ced4e7b37e8d402730d0433b7e0.a(Print.cpp.o)
 .rodata.str1.1
                0x00000000       0x11 C:\Users\TURBO9~1\AppData\Local\Temp\arduino_cache_432467\core\core_487b1ced4e7b37e8d402730d0433b7e0.a(Print.cpp.o)
 .text          0x00000000        0x0 C:\Users\TURBO9~1\AppData\Local\Temp\arduino_cache_432467\core\core_487b1ced4e7b37e8d402730d0433b7e0.a(cxxabi-compat.cpp.o)
 .data          0x00000000        0x0 C:\Users\TURBO9~1\AppData\Local\Temp\arduino_cache_432467\core\core_487b1ced4e7b37e8d402730d0433b7e0.a(cxxabi-compat.cpp.o)
 .bss           0x00000000        0x0 C:\Users\TURBO9~1\AppData\Local\Temp\arduino_cache_432467\core\core_487b1ced4e7b37e8d402730d0433b7e0.a(cxxabi-compat.cpp.o)
 .text.__cxa_pure_virtual
                0x00000000        0x2 C:\Users\TURBO9~1\AppData\Local\Temp\arduino_cache_432467\core\core_487b1ced4e7b37e8d402730d0433b7e0.a(cxxabi-compat.cpp.o)
 .text          0x00000000        0x0 C:\Users\TURBO9~1\AppData\Local\Temp\arduino_cache_432467\core\core_487b1ced4e7b37e8d402730d0433b7e0.a(ext_interrupts.cpp.o)
 .data          0x00000000        0x0 C:\Users\TURBO9~1\AppData\Local\Temp\arduino_cache_432467\core\core_487b1ced4e7b37e8d402730d0433b7e0.a(ext_interrupts.cpp.o)
 .bss           0x00000000        0x0 C:\Users\TURBO9~1\AppData\Local\Temp\arduino_cache_432467\core\core_487b1ced4e7b37e8d402730d0433b7e0.a(ext_interrupts.cpp.o)
 .text._Z15attachInterrupthPFvPvES_17ExtIntTriggerMode
                0x00000000       0x40 C:\Users\TURBO9~1\AppData\Local\Temp\arduino_cache_432467\core\core_487b1ced4e7b37e8d402730d0433b7e0.a(ext_interrupts.cpp.o)
 .text._Z15detachInterrupth
                0x00000000       0x18 C:\Users\TURBO9~1\AppData\Local\Temp\arduino_cache_432467\core\core_487b1ced4e7b37e8d402730d0433b7e0.a(ext_interrupts.cpp.o)
 .text          0x00000000        0x0 C:\Users\TURBO9~1\AppData\Local\Temp\arduino_cache_432467\core\core_487b1ced4e7b37e8d402730d0433b7e0.a(adc.c.o)
 .data          0x00000000        0x0 C:\Users\TURBO9~1\AppData\Local\Temp\arduino_cache_432467\core\core_487b1ced4e7b37e8d402730d0433b7e0.a(adc.c.o)
 .bss           0x00000000        0x0 C:\Users\TURBO9~1\AppData\Local\Temp\arduino_cache_432467\core\core_487b1ced4e7b37e8d402730d0433b7e0.a(adc.c.o)
 .text.adc_read
                0x00000000       0x20 C:\Users\TURBO9~1\AppData\Local\Temp\arduino_cache_432467\core\core_487b1ced4e7b37e8d402730d0433b7e0.a(adc.c.o)
 .text          0x00000000        0x0 C:\Users\TURBO9~1\AppData\Local\Temp\arduino_cache_432467\core\core_487b1ced4e7b37e8d402730d0433b7e0.a(adc_f1.c.o)
 .data          0x00000000        0x0 C:\Users\TURBO9~1\AppData\Local\Temp\arduino_cache_432467\core\core_487b1ced4e7b37e8d402730d0433b7e0.a(adc_f1.c.o)
 .bss           0x00000000        0x0 C:\Users\TURBO9~1\AppData\Local\Temp\arduino_cache_432467\core\core_487b1ced4e7b37e8d402730d0433b7e0.a(adc_f1.c.o)
 .text.adc_enable_irq
                0x00000000       0x30 C:\Users\TURBO9~1\AppData\Local\Temp\arduino_cache_432467\core\core_487b1ced4e7b37e8d402730d0433b7e0.a(adc_f1.c.o)
 .text.adc_attach_interrupt
                0x00000000        0xa C:\Users\TURBO9~1\AppData\Local\Temp\arduino_cache_432467\core\core_487b1ced4e7b37e8d402730d0433b7e0.a(adc_f1.c.o)
 .text.adc_config_gpio
                0x00000000        0xa C:\Users\TURBO9~1\AppData\Local\Temp\arduino_cache_432467\core\core_487b1ced4e7b37e8d402730d0433b7e0.a(adc_f1.c.o)
 .text          0x00000000        0x0 C:\Users\TURBO9~1\AppData\Local\Temp\arduino_cache_432467\core\core_487b1ced4e7b37e8d402730d0433b7e0.a(dma_f1.c.o)
 .data          0x00000000        0x0 C:\Users\TURBO9~1\AppData\Local\Temp\arduino_cache_432467\core\core_487b1ced4e7b37e8d402730d0433b7e0.a(dma_f1.c.o)
 .bss           0x00000000        0x0 C:\Users\TURBO9~1\AppData\Local\Temp\arduino_cache_432467\core\core_487b1ced4e7b37e8d402730d0433b7e0.a(dma_f1.c.o)
 .text.dma_set_priority
                0x00000000       0x18 C:\Users\TURBO9~1\AppData\Local\Temp\arduino_cache_432467\core\core_487b1ced4e7b37e8d402730d0433b7e0.a(dma_f1.c.o)
 .text.dma_set_num_transfers
                0x00000000       0x10 C:\Users\TURBO9~1\AppData\Local\Temp\arduino_cache_432467\core\core_487b1ced4e7b37e8d402730d0433b7e0.a(dma_f1.c.o)
 .text.dma_attach_interrupt
                0x00000000       0x28 C:\Users\TURBO9~1\AppData\Local\Temp\arduino_cache_432467\core\core_487b1ced4e7b37e8d402730d0433b7e0.a(dma_f1.c.o)
 .text.dma_detach_interrupt
                0x00000000       0x1c C:\Users\TURBO9~1\AppData\Local\Temp\arduino_cache_432467\core\core_487b1ced4e7b37e8d402730d0433b7e0.a(dma_f1.c.o)
 .text.dma_enable
                0x00000000       0x18 C:\Users\TURBO9~1\AppData\Local\Temp\arduino_cache_432467\core\core_487b1ced4e7b37e8d402730d0433b7e0.a(dma_f1.c.o)
 .text.dma_disable
                0x00000000       0x18 C:\Users\TURBO9~1\AppData\Local\Temp\arduino_cache_432467\core\core_487b1ced4e7b37e8d402730d0433b7e0.a(dma_f1.c.o)
 .text.dma_tube_cfg
                0x00000000      0x15c C:\Users\TURBO9~1\AppData\Local\Temp\arduino_cache_432467\core\core_487b1ced4e7b37e8d402730d0433b7e0.a(dma_f1.c.o)
 .text.dma_get_irq_cause
                0x00000000       0x3c C:\Users\TURBO9~1\AppData\Local\Temp\arduino_cache_432467\core\core_487b1ced4e7b37e8d402730d0433b7e0.a(dma_f1.c.o)
 .text.dma_set_mem_addr
                0x00000000       0x10 C:\Users\TURBO9~1\AppData\Local\Temp\arduino_cache_432467\core\core_487b1ced4e7b37e8d402730d0433b7e0.a(dma_f1.c.o)
 .text.dma_set_per_addr
                0x00000000       0x10 C:\Users\TURBO9~1\AppData\Local\Temp\arduino_cache_432467\core\core_487b1ced4e7b37e8d402730d0433b7e0.a(dma_f1.c.o)
 .text.dma_setup_transfer
                0x00000000       0x36 C:\Users\TURBO9~1\AppData\Local\Temp\arduino_cache_432467\core\core_487b1ced4e7b37e8d402730d0433b7e0.a(dma_f1.c.o)
 .data          0x00000000        0x0 C:\Users\TURBO9~1\AppData\Local\Temp\arduino_cache_432467\core\core_487b1ced4e7b37e8d402730d0433b7e0.a(exc.S.o)
 .bss           0x00000000        0x0 C:\Users\TURBO9~1\AppData\Local\Temp\arduino_cache_432467\core\core_487b1ced4e7b37e8d402730d0433b7e0.a(exc.S.o)
 .text          0x00000000        0x0 C:\Users\TURBO9~1\AppData\Local\Temp\arduino_cache_432467\core\core_487b1ced4e7b37e8d402730d0433b7e0.a(exti.c.o)
 .data          0x00000000        0x0 C:\Users\TURBO9~1\AppData\Local\Temp\arduino_cache_432467\core\core_487b1ced4e7b37e8d402730d0433b7e0.a(exti.c.o)
 .bss           0x00000000        0x0 C:\Users\TURBO9~1\AppData\Local\Temp\arduino_cache_432467\core\core_487b1ced4e7b37e8d402730d0433b7e0.a(exti.c.o)
 .text.exti_detach_interrupt
                0x00000000       0x28 C:\Users\TURBO9~1\AppData\Local\Temp\arduino_cache_432467\core\core_487b1ced4e7b37e8d402730d0433b7e0.a(exti.c.o)
 .text          0x00000000        0x0 C:\Users\TURBO9~1\AppData\Local\Temp\arduino_cache_432467\core\core_487b1ced4e7b37e8d402730d0433b7e0.a(exti_f1.c.o)
 .data          0x00000000        0x0 C:\Users\TURBO9~1\AppData\Local\Temp\arduino_cache_432467\core\core_487b1ced4e7b37e8d402730d0433b7e0.a(exti_f1.c.o)
 .bss           0x00000000        0x0 C:\Users\TURBO9~1\AppData\Local\Temp\arduino_cache_432467\core\core_487b1ced4e7b37e8d402730d0433b7e0.a(exti_f1.c.o)
 .text          0x00000000        0x0 C:\Users\TURBO9~1\AppData\Local\Temp\arduino_cache_432467\core\core_487b1ced4e7b37e8d402730d0433b7e0.a(flash.c.o)
 .data          0x00000000        0x0 C:\Users\TURBO9~1\AppData\Local\Temp\arduino_cache_432467\core\core_487b1ced4e7b37e8d402730d0433b7e0.a(flash.c.o)
 .bss           0x00000000        0x0 C:\Users\TURBO9~1\AppData\Local\Temp\arduino_cache_432467\core\core_487b1ced4e7b37e8d402730d0433b7e0.a(flash.c.o)
 .text          0x00000000        0x0 C:\Users\TURBO9~1\AppData\Local\Temp\arduino_cache_432467\core\core_487b1ced4e7b37e8d402730d0433b7e0.a(gpio_f1.c.o)
 .data          0x00000000        0x0 C:\Users\TURBO9~1\AppData\Local\Temp\arduino_cache_432467\core\core_487b1ced4e7b37e8d402730d0433b7e0.a(gpio_f1.c.o)
 .bss           0x00000000        0x0 C:\Users\TURBO9~1\AppData\Local\Temp\arduino_cache_432467\core\core_487b1ced4e7b37e8d402730d0433b7e0.a(gpio_f1.c.o)
 .text.gpio_get_mode
                0x00000000       0x2a C:\Users\TURBO9~1\AppData\Local\Temp\arduino_cache_432467\core\core_487b1ced4e7b37e8d402730d0433b7e0.a(gpio_f1.c.o)
 .text.afio_remap
                0x00000000       0x20 C:\Users\TURBO9~1\AppData\Local\Temp\arduino_cache_432467\core\core_487b1ced4e7b37e8d402730d0433b7e0.a(gpio_f1.c.o)
 .rodata.GPIOD  0x00000000        0x4 C:\Users\TURBO9~1\AppData\Local\Temp\arduino_cache_432467\core\core_487b1ced4e7b37e8d402730d0433b7e0.a(gpio_f1.c.o)
 .text          0x00000000        0x0 C:\Users\TURBO9~1\AppData\Local\Temp\arduino_cache_432467\core\core_487b1ced4e7b37e8d402730d0433b7e0.a(i2c_f1.c.o)
 .data          0x00000000        0x0 C:\Users\TURBO9~1\AppData\Local\Temp\arduino_cache_432467\core\core_487b1ced4e7b37e8d402730d0433b7e0.a(i2c_f1.c.o)
 .bss           0x00000000        0x0 C:\Users\TURBO9~1\AppData\Local\Temp\arduino_cache_432467\core\core_487b1ced4e7b37e8d402730d0433b7e0.a(i2c_f1.c.o)
 .text.i2c_config_gpios
                0x00000000       0x58 C:\Users\TURBO9~1\AppData\Local\Temp\arduino_cache_432467\core\core_487b1ced4e7b37e8d402730d0433b7e0.a(i2c_f1.c.o)
 .text.i2c_master_release_bus
                0x00000000       0x4c C:\Users\TURBO9~1\AppData\Local\Temp\arduino_cache_432467\core\core_487b1ced4e7b37e8d402730d0433b7e0.a(i2c_f1.c.o)
 .rodata.I2C1   0x00000000        0x4 C:\Users\TURBO9~1\AppData\Local\Temp\arduino_cache_432467\core\core_487b1ced4e7b37e8d402730d0433b7e0.a(i2c_f1.c.o)
 .rodata.I2C2   0x00000000        0x4 C:\Users\TURBO9~1\AppData\Local\Temp\arduino_cache_432467\core\core_487b1ced4e7b37e8d402730d0433b7e0.a(i2c_f1.c.o)
 .text          0x00000000        0x0 C:\Users\TURBO9~1\AppData\Local\Temp\arduino_cache_432467\core\core_487b1ced4e7b37e8d402730d0433b7e0.a(nvic.c.o)
 .data          0x00000000        0x0 C:\Users\TURBO9~1\AppData\Local\Temp\arduino_cache_432467\core\core_487b1ced4e7b37e8d402730d0433b7e0.a(nvic.c.o)
 .bss           0x00000000        0x0 C:\Users\TURBO9~1\AppData\Local\Temp\arduino_cache_432467\core\core_487b1ced4e7b37e8d402730d0433b7e0.a(nvic.c.o)
 .text.nvic_set_vector_table
                0x00000000       0x14 C:\Users\TURBO9~1\AppData\Local\Temp\arduino_cache_432467\core\core_487b1ced4e7b37e8d402730d0433b7e0.a(nvic.c.o)
 .text          0x00000000        0x0 C:\Users\TURBO9~1\AppData\Local\Temp\arduino_cache_432467\core\core_487b1ced4e7b37e8d402730d0433b7e0.a(rcc.c.o)
 .data          0x00000000        0x0 C:\Users\TURBO9~1\AppData\Local\Temp\arduino_cache_432467\core\core_487b1ced4e7b37e8d402730d0433b7e0.a(rcc.c.o)
 .bss           0x00000000        0x0 C:\Users\TURBO9~1\AppData\Local\Temp\arduino_cache_432467\core\core_487b1ced4e7b37e8d402730d0433b7e0.a(rcc.c.o)
 .text.rcc_is_clk_on
                0x00000000       0x1e C:\Users\TURBO9~1\AppData\Local\Temp\arduino_cache_432467\core\core_487b1ced4e7b37e8d402730d0433b7e0.a(rcc.c.o)
 .text          0x00000000        0x0 C:\Users\TURBO9~1\AppData\Local\Temp\arduino_cache_432467\core\core_487b1ced4e7b37e8d402730d0433b7e0.a(rcc_f1.c.o)
 .data          0x00000000        0x0 C:\Users\TURBO9~1\AppData\Local\Temp\arduino_cache_432467\core\core_487b1ced4e7b37e8d402730d0433b7e0.a(rcc_f1.c.o)
 .bss           0x00000000        0x0 C:\Users\TURBO9~1\AppData\Local\Temp\arduino_cache_432467\core\core_487b1ced4e7b37e8d402730d0433b7e0.a(rcc_f1.c.o)
 .text.rcc_clk_init
                0x00000000       0x3c C:\Users\TURBO9~1\AppData\Local\Temp\arduino_cache_432467\core\core_487b1ced4e7b37e8d402730d0433b7e0.a(rcc_f1.c.o)
 .data          0x00000000        0x0 C:\Users\TURBO9~1\AppData\Local\Temp\arduino_cache_432467\core\core_487b1ced4e7b37e8d402730d0433b7e0.a(isrs.S.o)
 .bss           0x00000000        0x0 C:\Users\TURBO9~1\AppData\Local\Temp\arduino_cache_432467\core\core_487b1ced4e7b37e8d402730d0433b7e0.a(isrs.S.o)
 .text          0x00000000        0x0 C:\Users\TURBO9~1\AppData\Local\Temp\arduino_cache_432467\core\core_487b1ced4e7b37e8d402730d0433b7e0.a(vector_table.S.o)
 .data          0x00000000        0x0 C:\Users\TURBO9~1\AppData\Local\Temp\arduino_cache_432467\core\core_487b1ced4e7b37e8d402730d0433b7e0.a(vector_table.S.o)
 .bss           0x00000000        0x0 C:\Users\TURBO9~1\AppData\Local\Temp\arduino_cache_432467\core\core_487b1ced4e7b37e8d402730d0433b7e0.a(vector_table.S.o)
 .text          0x00000000        0x0 C:\Users\TURBO9~1\AppData\Local\Temp\arduino_cache_432467\core\core_487b1ced4e7b37e8d402730d0433b7e0.a(systick.c.o)
 .data          0x00000000        0x0 C:\Users\TURBO9~1\AppData\Local\Temp\arduino_cache_432467\core\core_487b1ced4e7b37e8d402730d0433b7e0.a(systick.c.o)
 .bss           0x00000000        0x0 C:\Users\TURBO9~1\AppData\Local\Temp\arduino_cache_432467\core\core_487b1ced4e7b37e8d402730d0433b7e0.a(systick.c.o)
 .text.systick_disable
                0x00000000        0xc C:\Users\TURBO9~1\AppData\Local\Temp\arduino_cache_432467\core\core_487b1ced4e7b37e8d402730d0433b7e0.a(systick.c.o)
 .text.systick_enable
                0x00000000        0xc C:\Users\TURBO9~1\AppData\Local\Temp\arduino_cache_432467\core\core_487b1ced4e7b37e8d402730d0433b7e0.a(systick.c.o)
 .text.systick_attach_callback
                0x00000000        0xc C:\Users\TURBO9~1\AppData\Local\Temp\arduino_cache_432467\core\core_487b1ced4e7b37e8d402730d0433b7e0.a(systick.c.o)
 .text          0x00000000        0x0 C:\Users\TURBO9~1\AppData\Local\Temp\arduino_cache_432467\core\core_487b1ced4e7b37e8d402730d0433b7e0.a(timer.c.o)
 .data          0x00000000        0x0 C:\Users\TURBO9~1\AppData\Local\Temp\arduino_cache_432467\core\core_487b1ced4e7b37e8d402730d0433b7e0.a(timer.c.o)
 .bss           0x00000000        0x0 C:\Users\TURBO9~1\AppData\Local\Temp\arduino_cache_432467\core\core_487b1ced4e7b37e8d402730d0433b7e0.a(timer.c.o)
 .text.timer_oc_set_mode
                0x00000000       0x3a C:\Users\TURBO9~1\AppData\Local\Temp\arduino_cache_432467\core\core_487b1ced4e7b37e8d402730d0433b7e0.a(timer.c.o)
 .text.timer_cc_enable
                0x00000000       0x1c C:\Users\TURBO9~1\AppData\Local\Temp\arduino_cache_432467\core\core_487b1ced4e7b37e8d402730d0433b7e0.a(timer.c.o)
 .text.timer_disable
                0x00000000       0x12 C:\Users\TURBO9~1\AppData\Local\Temp\arduino_cache_432467\core\core_487b1ced4e7b37e8d402730d0433b7e0.a(timer.c.o)
 .text.timer_attach_interrupt
                0x00000000       0xe0 C:\Users\TURBO9~1\AppData\Local\Temp\arduino_cache_432467\core\core_487b1ced4e7b37e8d402730d0433b7e0.a(timer.c.o)
 .text.timer_detach_interrupt
                0x00000000       0x1e C:\Users\TURBO9~1\AppData\Local\Temp\arduino_cache_432467\core\core_487b1ced4e7b37e8d402730d0433b7e0.a(timer.c.o)
 .text.get_direction
                0x00000000        0xe C:\Users\TURBO9~1\AppData\Local\Temp\arduino_cache_432467\core\core_487b1ced4e7b37e8d402730d0433b7e0.a(timer.c.o)
 .text.input_capture_mode
                0x00000000       0x1a C:\Users\TURBO9~1\AppData\Local\Temp\arduino_cache_432467\core\core_487b1ced4e7b37e8d402730d0433b7e0.a(timer.c.o)
 .text.timer_set_mode
                0x00000000       0x8c C:\Users\TURBO9~1\AppData\Local\Temp\arduino_cache_432467\core\core_487b1ced4e7b37e8d402730d0433b7e0.a(timer.c.o)
 .rodata.TIMER1
                0x00000000        0x4 C:\Users\TURBO9~1\AppData\Local\Temp\arduino_cache_432467\core\core_487b1ced4e7b37e8d402730d0433b7e0.a(timer.c.o)
 .rodata.TIMER2
                0x00000000        0x4 C:\Users\TURBO9~1\AppData\Local\Temp\arduino_cache_432467\core\core_487b1ced4e7b37e8d402730d0433b7e0.a(timer.c.o)
 .rodata.TIMER3
                0x00000000        0x4 C:\Users\TURBO9~1\AppData\Local\Temp\arduino_cache_432467\core\core_487b1ced4e7b37e8d402730d0433b7e0.a(timer.c.o)
 .rodata.TIMER4
                0x00000000        0x4 C:\Users\TURBO9~1\AppData\Local\Temp\arduino_cache_432467\core\core_487b1ced4e7b37e8d402730d0433b7e0.a(timer.c.o)
 .text          0x00000000        0x0 C:\Users\TURBO9~1\AppData\Local\Temp\arduino_cache_432467\core\core_487b1ced4e7b37e8d402730d0433b7e0.a(usart.c.o)
 .data          0x00000000        0x0 C:\Users\TURBO9~1\AppData\Local\Temp\arduino_cache_432467\core\core_487b1ced4e7b37e8d402730d0433b7e0.a(usart.c.o)
 .bss           0x00000000        0x0 C:\Users\TURBO9~1\AppData\Local\Temp\arduino_cache_432467\core\core_487b1ced4e7b37e8d402730d0433b7e0.a(usart.c.o)
 .text.usart_init
                0x00000000       0x4c C:\Users\TURBO9~1\AppData\Local\Temp\arduino_cache_432467\core\core_487b1ced4e7b37e8d402730d0433b7e0.a(usart.c.o)
 .text.usart_enable
                0x00000000       0x14 C:\Users\TURBO9~1\AppData\Local\Temp\arduino_cache_432467\core\core_487b1ced4e7b37e8d402730d0433b7e0.a(usart.c.o)
 .text.usart_disable
                0x00000000       0x38 C:\Users\TURBO9~1\AppData\Local\Temp\arduino_cache_432467\core\core_487b1ced4e7b37e8d402730d0433b7e0.a(usart.c.o)
 .text.usart_rx
                0x00000000       0x58 C:\Users\TURBO9~1\AppData\Local\Temp\arduino_cache_432467\core\core_487b1ced4e7b37e8d402730d0433b7e0.a(usart.c.o)
 .text.usart_putudec
                0x00000000       0x44 C:\Users\TURBO9~1\AppData\Local\Temp\arduino_cache_432467\core\core_487b1ced4e7b37e8d402730d0433b7e0.a(usart.c.o)
 .text          0x00000000        0x0 C:\Users\TURBO9~1\AppData\Local\Temp\arduino_cache_432467\core\core_487b1ced4e7b37e8d402730d0433b7e0.a(usart_f1.c.o)
 .data          0x00000000        0x0 C:\Users\TURBO9~1\AppData\Local\Temp\arduino_cache_432467\core\core_487b1ced4e7b37e8d402730d0433b7e0.a(usart_f1.c.o)
 .bss           0x00000000        0x0 C:\Users\TURBO9~1\AppData\Local\Temp\arduino_cache_432467\core\core_487b1ced4e7b37e8d402730d0433b7e0.a(usart_f1.c.o)
 .text.usart_config_gpios_async
                0x00000000       0x4a C:\Users\TURBO9~1\AppData\Local\Temp\arduino_cache_432467\core\core_487b1ced4e7b37e8d402730d0433b7e0.a(usart_f1.c.o)
 .text.usart_set_baud_rate
                0x00000000       0x3c C:\Users\TURBO9~1\AppData\Local\Temp\arduino_cache_432467\core\core_487b1ced4e7b37e8d402730d0433b7e0.a(usart_f1.c.o)
 .text.usart_foreach
                0x00000000       0x24 C:\Users\TURBO9~1\AppData\Local\Temp\arduino_cache_432467\core\core_487b1ced4e7b37e8d402730d0433b7e0.a(usart_f1.c.o)
 .text          0x00000000        0x0 C:\Users\TURBO9~1\AppData\Local\Temp\arduino_cache_432467\core\core_487b1ced4e7b37e8d402730d0433b7e0.a(usart_private.c.o)
 .data          0x00000000        0x0 C:\Users\TURBO9~1\AppData\Local\Temp\arduino_cache_432467\core\core_487b1ced4e7b37e8d402730d0433b7e0.a(usart_private.c.o)
 .bss           0x00000000        0x0 C:\Users\TURBO9~1\AppData\Local\Temp\arduino_cache_432467\core\core_487b1ced4e7b37e8d402730d0433b7e0.a(usart_private.c.o)
 .text._usart_clock_freq
                0x00000000       0x24 C:\Users\TURBO9~1\AppData\Local\Temp\arduino_cache_432467\core\core_487b1ced4e7b37e8d402730d0433b7e0.a(usart_private.c.o)
 .text          0x00000000        0x0 C:\Users\TURBO9~1\AppData\Local\Temp\arduino_cache_432467\core\core_487b1ced4e7b37e8d402730d0433b7e0.a(usb.c.o)
 .data          0x00000000        0x0 C:\Users\TURBO9~1\AppData\Local\Temp\arduino_cache_432467\core\core_487b1ced4e7b37e8d402730d0433b7e0.a(usb.c.o)
 .bss           0x00000000        0x0 C:\Users\TURBO9~1\AppData\Local\Temp\arduino_cache_432467\core\core_487b1ced4e7b37e8d402730d0433b7e0.a(usb.c.o)
 .text.usb_power_off
                0x00000000       0x14 C:\Users\TURBO9~1\AppData\Local\Temp\arduino_cache_432467\core\core_487b1ced4e7b37e8d402730d0433b7e0.a(usb.c.o)
 .text          0x00000000        0x0 C:\Users\TURBO9~1\AppData\Local\Temp\arduino_cache_432467\core\core_487b1ced4e7b37e8d402730d0433b7e0.a(usb_cdcacm.c.o)
 .data          0x00000000        0x0 C:\Users\TURBO9~1\AppData\Local\Temp\arduino_cache_432467\core\core_487b1ced4e7b37e8d402730d0433b7e0.a(usb_cdcacm.c.o)
 .bss           0x00000000        0x0 C:\Users\TURBO9~1\AppData\Local\Temp\arduino_cache_432467\core\core_487b1ced4e7b37e8d402730d0433b7e0.a(usb_cdcacm.c.o)
 .text.usb_cdcacm_disable
                0x00000000       0x20 C:\Users\TURBO9~1\AppData\Local\Temp\arduino_cache_432467\core\core_487b1ced4e7b37e8d402730d0433b7e0.a(usb_cdcacm.c.o)
 .text.usb_cdcacm_putc
                0x00000000       0x1a C:\Users\TURBO9~1\AppData\Local\Temp\arduino_cache_432467\core\core_487b1ced4e7b37e8d402730d0433b7e0.a(usb_cdcacm.c.o)
 .text.usb_cdcacm_is_transmitting
                0x00000000       0x14 C:\Users\TURBO9~1\AppData\Local\Temp\arduino_cache_432467\core\core_487b1ced4e7b37e8d402730d0433b7e0.a(usb_cdcacm.c.o)
 .text.usb_cdcacm_get_pending
                0x00000000       0x18 C:\Users\TURBO9~1\AppData\Local\Temp\arduino_cache_432467\core\core_487b1ced4e7b37e8d402730d0433b7e0.a(usb_cdcacm.c.o)
 .text.usb_cdcacm_tx_available
                0x00000000        0xc C:\Users\TURBO9~1\AppData\Local\Temp\arduino_cache_432467\core\core_487b1ced4e7b37e8d402730d0433b7e0.a(usb_cdcacm.c.o)
 .text.usb_cdcacm_peek_char
                0x00000000       0x24 C:\Users\TURBO9~1\AppData\Local\Temp\arduino_cache_432467\core\core_487b1ced4e7b37e8d402730d0433b7e0.a(usb_cdcacm.c.o)
 .text.usb_cdcacm_get_rts
                0x00000000       0x10 C:\Users\TURBO9~1\AppData\Local\Temp\arduino_cache_432467\core\core_487b1ced4e7b37e8d402730d0433b7e0.a(usb_cdcacm.c.o)
 .text.usb_cdcacm_get_line_coding
                0x00000000       0x18 C:\Users\TURBO9~1\AppData\Local\Temp\arduino_cache_432467\core\core_487b1ced4e7b37e8d402730d0433b7e0.a(usb_cdcacm.c.o)
 .text.usb_cdcacm_get_baud
                0x00000000        0xc C:\Users\TURBO9~1\AppData\Local\Temp\arduino_cache_432467\core\core_487b1ced4e7b37e8d402730d0433b7e0.a(usb_cdcacm.c.o)
 .text.usb_cdcacm_get_stop_bits
                0x00000000        0xc C:\Users\TURBO9~1\AppData\Local\Temp\arduino_cache_432467\core\core_487b1ced4e7b37e8d402730d0433b7e0.a(usb_cdcacm.c.o)
 .text.usb_cdcacm_get_parity
                0x00000000        0xc C:\Users\TURBO9~1\AppData\Local\Temp\arduino_cache_432467\core\core_487b1ced4e7b37e8d402730d0433b7e0.a(usb_cdcacm.c.o)
 .text.usb_cdcacm_get_n_data_bits
                0x00000000        0xc C:\Users\TURBO9~1\AppData\Local\Temp\arduino_cache_432467\core\core_487b1ced4e7b37e8d402730d0433b7e0.a(usb_cdcacm.c.o)
 .text          0x00000000        0x0 C:\Users\TURBO9~1\AppData\Local\Temp\arduino_cache_432467\core\core_487b1ced4e7b37e8d402730d0433b7e0.a(usb_reg_map.c.o)
 .data          0x00000000        0x0 C:\Users\TURBO9~1\AppData\Local\Temp\arduino_cache_432467\core\core_487b1ced4e7b37e8d402730d0433b7e0.a(usb_reg_map.c.o)
 .bss           0x00000000        0x0 C:\Users\TURBO9~1\AppData\Local\Temp\arduino_cache_432467\core\core_487b1ced4e7b37e8d402730d0433b7e0.a(usb_reg_map.c.o)
 .text          0x00000000        0x0 C:\Users\TURBO9~1\AppData\Local\Temp\arduino_cache_432467\core\core_487b1ced4e7b37e8d402730d0433b7e0.a(usb_core.c.o)
 .data          0x00000000        0x0 C:\Users\TURBO9~1\AppData\Local\Temp\arduino_cache_432467\core\core_487b1ced4e7b37e8d402730d0433b7e0.a(usb_core.c.o)
 .bss           0x00000000        0x0 C:\Users\TURBO9~1\AppData\Local\Temp\arduino_cache_432467\core\core_487b1ced4e7b37e8d402730d0433b7e0.a(usb_core.c.o)
 .text          0x00000000        0x0 C:\Users\TURBO9~1\AppData\Local\Temp\arduino_cache_432467\core\core_487b1ced4e7b37e8d402730d0433b7e0.a(usb_init.c.o)
 .data          0x00000000        0x0 C:\Users\TURBO9~1\AppData\Local\Temp\arduino_cache_432467\core\core_487b1ced4e7b37e8d402730d0433b7e0.a(usb_init.c.o)
 .bss           0x00000000        0x0 C:\Users\TURBO9~1\AppData\Local\Temp\arduino_cache_432467\core\core_487b1ced4e7b37e8d402730d0433b7e0.a(usb_init.c.o)
 .text.USB_Init
                0x00000000       0x38 C:\Users\TURBO9~1\AppData\Local\Temp\arduino_cache_432467\core\core_487b1ced4e7b37e8d402730d0433b7e0.a(usb_init.c.o)
 .text          0x00000000        0x0 C:\Users\TURBO9~1\AppData\Local\Temp\arduino_cache_432467\core\core_487b1ced4e7b37e8d402730d0433b7e0.a(usb_mem.c.o)
 .data          0x00000000        0x0 C:\Users\TURBO9~1\AppData\Local\Temp\arduino_cache_432467\core\core_487b1ced4e7b37e8d402730d0433b7e0.a(usb_mem.c.o)
 .bss           0x00000000        0x0 C:\Users\TURBO9~1\AppData\Local\Temp\arduino_cache_432467\core\core_487b1ced4e7b37e8d402730d0433b7e0.a(usb_mem.c.o)
 .text          0x00000000        0x0 C:\Users\TURBO9~1\AppData\Local\Temp\arduino_cache_432467\core\core_487b1ced4e7b37e8d402730d0433b7e0.a(usb_regs.c.o)
 .data          0x00000000        0x0 C:\Users\TURBO9~1\AppData\Local\Temp\arduino_cache_432467\core\core_487b1ced4e7b37e8d402730d0433b7e0.a(usb_regs.c.o)
 .bss           0x00000000        0x0 C:\Users\TURBO9~1\AppData\Local\Temp\arduino_cache_432467\core\core_487b1ced4e7b37e8d402730d0433b7e0.a(usb_regs.c.o)
 .text.SetCNTR  0x00000000        0xc C:\Users\TURBO9~1\AppData\Local\Temp\arduino_cache_432467\core\core_487b1ced4e7b37e8d402730d0433b7e0.a(usb_regs.c.o)
 .text.GetCNTR  0x00000000        0xc C:\Users\TURBO9~1\AppData\Local\Temp\arduino_cache_432467\core\core_487b1ced4e7b37e8d402730d0433b7e0.a(usb_regs.c.o)
 .text.SetISTR  0x00000000        0xc C:\Users\TURBO9~1\AppData\Local\Temp\arduino_cache_432467\core\core_487b1ced4e7b37e8d402730d0433b7e0.a(usb_regs.c.o)
 .text.GetISTR  0x00000000        0xc C:\Users\TURBO9~1\AppData\Local\Temp\arduino_cache_432467\core\core_487b1ced4e7b37e8d402730d0433b7e0.a(usb_regs.c.o)
 .text.GetFNR   0x00000000        0xc C:\Users\TURBO9~1\AppData\Local\Temp\arduino_cache_432467\core\core_487b1ced4e7b37e8d402730d0433b7e0.a(usb_regs.c.o)
 .text.SetDADDR
                0x00000000        0xc C:\Users\TURBO9~1\AppData\Local\Temp\arduino_cache_432467\core\core_487b1ced4e7b37e8d402730d0433b7e0.a(usb_regs.c.o)
 .text.GetDADDR
                0x00000000        0xc C:\Users\TURBO9~1\AppData\Local\Temp\arduino_cache_432467\core\core_487b1ced4e7b37e8d402730d0433b7e0.a(usb_regs.c.o)
 .text.SetBTABLE
                0x00000000       0x10 C:\Users\TURBO9~1\AppData\Local\Temp\arduino_cache_432467\core\core_487b1ced4e7b37e8d402730d0433b7e0.a(usb_regs.c.o)
 .text.GetBTABLE
                0x00000000        0xc C:\Users\TURBO9~1\AppData\Local\Temp\arduino_cache_432467\core\core_487b1ced4e7b37e8d402730d0433b7e0.a(usb_regs.c.o)
 .text.SetENDPOINT
                0x00000000        0xe C:\Users\TURBO9~1\AppData\Local\Temp\arduino_cache_432467\core\core_487b1ced4e7b37e8d402730d0433b7e0.a(usb_regs.c.o)
 .text.GetENDPOINT
                0x00000000       0x10 C:\Users\TURBO9~1\AppData\Local\Temp\arduino_cache_432467\core\core_487b1ced4e7b37e8d402730d0433b7e0.a(usb_regs.c.o)
 .text.SetEPType
                0x00000000       0x1c C:\Users\TURBO9~1\AppData\Local\Temp\arduino_cache_432467\core\core_487b1ced4e7b37e8d402730d0433b7e0.a(usb_regs.c.o)
 .text.GetEPType
                0x00000000       0x12 C:\Users\TURBO9~1\AppData\Local\Temp\arduino_cache_432467\core\core_487b1ced4e7b37e8d402730d0433b7e0.a(usb_regs.c.o)
 .text.SetEPRxStatus
                0x00000000       0x2a C:\Users\TURBO9~1\AppData\Local\Temp\arduino_cache_432467\core\core_487b1ced4e7b37e8d402730d0433b7e0.a(usb_regs.c.o)
 .text.SetDouBleBuffEPStall
                0x00000000       0x24 C:\Users\TURBO9~1\AppData\Local\Temp\arduino_cache_432467\core\core_487b1ced4e7b37e8d402730d0433b7e0.a(usb_regs.c.o)
 .text.GetEPTxStatus
                0x00000000       0x12 C:\Users\TURBO9~1\AppData\Local\Temp\arduino_cache_432467\core\core_487b1ced4e7b37e8d402730d0433b7e0.a(usb_regs.c.o)
 .text.GetEPRxStatus
                0x00000000       0x12 C:\Users\TURBO9~1\AppData\Local\Temp\arduino_cache_432467\core\core_487b1ced4e7b37e8d402730d0433b7e0.a(usb_regs.c.o)
 .text.SetEPTxValid
                0x00000000       0x1e C:\Users\TURBO9~1\AppData\Local\Temp\arduino_cache_432467\core\core_487b1ced4e7b37e8d402730d0433b7e0.a(usb_regs.c.o)
 .text.SetEPRxValid
                0x00000000       0x1e C:\Users\TURBO9~1\AppData\Local\Temp\arduino_cache_432467\core\core_487b1ced4e7b37e8d402730d0433b7e0.a(usb_regs.c.o)
 .text.SetEP_KIND
                0x00000000       0x1e C:\Users\TURBO9~1\AppData\Local\Temp\arduino_cache_432467\core\core_487b1ced4e7b37e8d402730d0433b7e0.a(usb_regs.c.o)
 .text.ClearEP_KIND
                0x00000000       0x1c C:\Users\TURBO9~1\AppData\Local\Temp\arduino_cache_432467\core\core_487b1ced4e7b37e8d402730d0433b7e0.a(usb_regs.c.o)
 .text.Clear_Status_Out
                0x00000000       0x1c C:\Users\TURBO9~1\AppData\Local\Temp\arduino_cache_432467\core\core_487b1ced4e7b37e8d402730d0433b7e0.a(usb_regs.c.o)
 .text.Set_Status_Out
                0x00000000       0x1e C:\Users\TURBO9~1\AppData\Local\Temp\arduino_cache_432467\core\core_487b1ced4e7b37e8d402730d0433b7e0.a(usb_regs.c.o)
 .text.SetEPDoubleBuff
                0x00000000       0x1e C:\Users\TURBO9~1\AppData\Local\Temp\arduino_cache_432467\core\core_487b1ced4e7b37e8d402730d0433b7e0.a(usb_regs.c.o)
 .text.ClearEPDoubleBuff
                0x00000000       0x1c C:\Users\TURBO9~1\AppData\Local\Temp\arduino_cache_432467\core\core_487b1ced4e7b37e8d402730d0433b7e0.a(usb_regs.c.o)
 .text.GetTxStallStatus
                0x00000000       0x1a C:\Users\TURBO9~1\AppData\Local\Temp\arduino_cache_432467\core\core_487b1ced4e7b37e8d402730d0433b7e0.a(usb_regs.c.o)
 .text.GetRxStallStatus
                0x00000000       0x1a C:\Users\TURBO9~1\AppData\Local\Temp\arduino_cache_432467\core\core_487b1ced4e7b37e8d402730d0433b7e0.a(usb_regs.c.o)
 .text.ClearEP_CTR_RX
                0x00000000       0x18 C:\Users\TURBO9~1\AppData\Local\Temp\arduino_cache_432467\core\core_487b1ced4e7b37e8d402730d0433b7e0.a(usb_regs.c.o)
 .text.ClearEP_CTR_TX
                0x00000000       0x1c C:\Users\TURBO9~1\AppData\Local\Temp\arduino_cache_432467\core\core_487b1ced4e7b37e8d402730d0433b7e0.a(usb_regs.c.o)
 .text.ToggleDTOG_RX
                0x00000000       0x20 C:\Users\TURBO9~1\AppData\Local\Temp\arduino_cache_432467\core\core_487b1ced4e7b37e8d402730d0433b7e0.a(usb_regs.c.o)
 .text.ToggleDTOG_TX
                0x00000000       0x20 C:\Users\TURBO9~1\AppData\Local\Temp\arduino_cache_432467\core\core_487b1ced4e7b37e8d402730d0433b7e0.a(usb_regs.c.o)
 .text.SetEPAddress
                0x00000000       0x1e C:\Users\TURBO9~1\AppData\Local\Temp\arduino_cache_432467\core\core_487b1ced4e7b37e8d402730d0433b7e0.a(usb_regs.c.o)
 .text.GetEPAddress
                0x00000000       0x12 C:\Users\TURBO9~1\AppData\Local\Temp\arduino_cache_432467\core\core_487b1ced4e7b37e8d402730d0433b7e0.a(usb_regs.c.o)
 .text.SetEPTxAddr
                0x00000000       0x20 C:\Users\TURBO9~1\AppData\Local\Temp\arduino_cache_432467\core\core_487b1ced4e7b37e8d402730d0433b7e0.a(usb_regs.c.o)
 .text.SetEPRxAddr
                0x00000000       0x20 C:\Users\TURBO9~1\AppData\Local\Temp\arduino_cache_432467\core\core_487b1ced4e7b37e8d402730d0433b7e0.a(usb_regs.c.o)
 .text.SetEPCountRxReg
                0x00000000       0x26 C:\Users\TURBO9~1\AppData\Local\Temp\arduino_cache_432467\core\core_487b1ced4e7b37e8d402730d0433b7e0.a(usb_regs.c.o)
 .text.GetEPTxCount
                0x00000000       0x20 C:\Users\TURBO9~1\AppData\Local\Temp\arduino_cache_432467\core\core_487b1ced4e7b37e8d402730d0433b7e0.a(usb_regs.c.o)
 .text.GetEPRxCount
                0x00000000       0x20 C:\Users\TURBO9~1\AppData\Local\Temp\arduino_cache_432467\core\core_487b1ced4e7b37e8d402730d0433b7e0.a(usb_regs.c.o)
 .text.SetEPDblBuffAddr
                0x00000000       0x38 C:\Users\TURBO9~1\AppData\Local\Temp\arduino_cache_432467\core\core_487b1ced4e7b37e8d402730d0433b7e0.a(usb_regs.c.o)
 .text.SetEPDblBuf0Addr
                0x00000000       0x20 C:\Users\TURBO9~1\AppData\Local\Temp\arduino_cache_432467\core\core_487b1ced4e7b37e8d402730d0433b7e0.a(usb_regs.c.o)
 .text.SetEPDblBuf1Addr
                0x00000000       0x20 C:\Users\TURBO9~1\AppData\Local\Temp\arduino_cache_432467\core\core_487b1ced4e7b37e8d402730d0433b7e0.a(usb_regs.c.o)
 .text.GetEPDblBuf0Addr
                0x00000000       0x1c C:\Users\TURBO9~1\AppData\Local\Temp\arduino_cache_432467\core\core_487b1ced4e7b37e8d402730d0433b7e0.a(usb_regs.c.o)
 .text.GetEPDblBuf1Addr
                0x00000000       0x1c C:\Users\TURBO9~1\AppData\Local\Temp\arduino_cache_432467\core\core_487b1ced4e7b37e8d402730d0433b7e0.a(usb_regs.c.o)
 .text.SetEPDblBuffCount
                0x00000000       0xa8 C:\Users\TURBO9~1\AppData\Local\Temp\arduino_cache_432467\core\core_487b1ced4e7b37e8d402730d0433b7e0.a(usb_regs.c.o)
 .text.SetEPDblBuf0Count
                0x00000000       0x5c C:\Users\TURBO9~1\AppData\Local\Temp\arduino_cache_432467\core\core_487b1ced4e7b37e8d402730d0433b7e0.a(usb_regs.c.o)
 .text.SetEPDblBuf1Count
                0x00000000       0x5c C:\Users\TURBO9~1\AppData\Local\Temp\arduino_cache_432467\core\core_487b1ced4e7b37e8d402730d0433b7e0.a(usb_regs.c.o)
 .text.GetEPDblBuf0Count
                0x00000000       0x20 C:\Users\TURBO9~1\AppData\Local\Temp\arduino_cache_432467\core\core_487b1ced4e7b37e8d402730d0433b7e0.a(usb_regs.c.o)
 .text.GetEPDblBuf1Count
                0x00000000       0x20 C:\Users\TURBO9~1\AppData\Local\Temp\arduino_cache_432467\core\core_487b1ced4e7b37e8d402730d0433b7e0.a(usb_regs.c.o)
 .text.GetEPDblBufDir
                0x00000000       0x44 C:\Users\TURBO9~1\AppData\Local\Temp\arduino_cache_432467\core\core_487b1ced4e7b37e8d402730d0433b7e0.a(usb_regs.c.o)
 .text.FreeUserBuffer
                0x00000000       0x3a C:\Users\TURBO9~1\AppData\Local\Temp\arduino_cache_432467\core\core_487b1ced4e7b37e8d402730d0433b7e0.a(usb_regs.c.o)
 .text.ToWord   0x00000000        0x6 C:\Users\TURBO9~1\AppData\Local\Temp\arduino_cache_432467\core\core_487b1ced4e7b37e8d402730d0433b7e0.a(usb_regs.c.o)
 .text.ByteSwap
                0x00000000        0xa C:\Users\TURBO9~1\AppData\Local\Temp\arduino_cache_432467\core\core_487b1ced4e7b37e8d402730d0433b7e0.a(usb_regs.c.o)
 .text          0x00000000        0x0 C:\Users\TURBO9~1\AppData\Local\Temp\arduino_cache_432467\core\core_487b1ced4e7b37e8d402730d0433b7e0.a(util.c.o)
 .data          0x00000000        0x0 C:\Users\TURBO9~1\AppData\Local\Temp\arduino_cache_432467\core\core_487b1ced4e7b37e8d402730d0433b7e0.a(util.c.o)
 .bss           0x00000000        0x0 C:\Users\TURBO9~1\AppData\Local\Temp\arduino_cache_432467\core\core_487b1ced4e7b37e8d402730d0433b7e0.a(util.c.o)
 .text.usart_putc
                0x00000000       0x1c C:\Users\TURBO9~1\AppData\Local\Temp\arduino_cache_432467\core\core_487b1ced4e7b37e8d402730d0433b7e0.a(util.c.o)
 .text.usart_putstr
                0x00000000       0x16 C:\Users\TURBO9~1\AppData\Local\Temp\arduino_cache_432467\core\core_487b1ced4e7b37e8d402730d0433b7e0.a(util.c.o)
 .text._fail    0x00000000       0x64 C:\Users\TURBO9~1\AppData\Local\Temp\arduino_cache_432467\core\core_487b1ced4e7b37e8d402730d0433b7e0.a(util.c.o)
 .text.__assert_func
                0x00000000        0x8 C:\Users\TURBO9~1\AppData\Local\Temp\arduino_cache_432467\core\core_487b1ced4e7b37e8d402730d0433b7e0.a(util.c.o)
 .text.abort    0x00000000       0x1c C:\Users\TURBO9~1\AppData\Local\Temp\arduino_cache_432467\core\core_487b1ced4e7b37e8d402730d0433b7e0.a(util.c.o)
 .rodata.str1.1
                0x00000000       0x42 C:\Users\TURBO9~1\AppData\Local\Temp\arduino_cache_432467\core\core_487b1ced4e7b37e8d402730d0433b7e0.a(util.c.o)
 .text          0x00000000        0x0 C:\Users\TURBO9~1\AppData\Local\Temp\arduino_cache_432467\core\core_487b1ced4e7b37e8d402730d0433b7e0.a(main.cpp.o)
 .data          0x00000000        0x0 C:\Users\TURBO9~1\AppData\Local\Temp\arduino_cache_432467\core\core_487b1ced4e7b37e8d402730d0433b7e0.a(main.cpp.o)
 .bss           0x00000000        0x0 C:\Users\TURBO9~1\AppData\Local\Temp\arduino_cache_432467\core\core_487b1ced4e7b37e8d402730d0433b7e0.a(main.cpp.o)
 .group         0x00000000        0x8 C:\Users\TURBO9~1\AppData\Local\Temp\arduino_cache_432467\core\core_487b1ced4e7b37e8d402730d0433b7e0.a(usb_serial.cpp.o)
 .text          0x00000000        0x0 C:\Users\TURBO9~1\AppData\Local\Temp\arduino_cache_432467\core\core_487b1ced4e7b37e8d402730d0433b7e0.a(usb_serial.cpp.o)
 .data          0x00000000        0x0 C:\Users\TURBO9~1\AppData\Local\Temp\arduino_cache_432467\core\core_487b1ced4e7b37e8d402730d0433b7e0.a(usb_serial.cpp.o)
 .bss           0x00000000        0x0 C:\Users\TURBO9~1\AppData\Local\Temp\arduino_cache_432467\core\core_487b1ced4e7b37e8d402730d0433b7e0.a(usb_serial.cpp.o)
 .text._ZN9USBSerial5beginEm
                0x00000000       0x10 C:\Users\TURBO9~1\AppData\Local\Temp\arduino_cache_432467\core\core_487b1ced4e7b37e8d402730d0433b7e0.a(usb_serial.cpp.o)
 .text._ZN9USBSerial5beginEmh
                0x00000000       0x18 C:\Users\TURBO9~1\AppData\Local\Temp\arduino_cache_432467\core\core_487b1ced4e7b37e8d402730d0433b7e0.a(usb_serial.cpp.o)
 .text._ZN9USBSerial3endEv
                0x00000000       0x20 C:\Users\TURBO9~1\AppData\Local\Temp\arduino_cache_432467\core\core_487b1ced4e7b37e8d402730d0433b7e0.a(usb_serial.cpp.o)
 .text._ZN9USBSerial17availableForWriteEv
                0x00000000        0x4 C:\Users\TURBO9~1\AppData\Local\Temp\arduino_cache_432467\core\core_487b1ced4e7b37e8d402730d0433b7e0.a(usb_serial.cpp.o)
 .text._ZN9USBSerial9readBytesEPcRKj
                0x00000000       0x40 C:\Users\TURBO9~1\AppData\Local\Temp\arduino_cache_432467\core\core_487b1ced4e7b37e8d402730d0433b7e0.a(usb_serial.cpp.o)
 .text._ZN9USBSerial7pendingEv
                0x00000000        0xa C:\Users\TURBO9~1\AppData\Local\Temp\arduino_cache_432467\core\core_487b1ced4e7b37e8d402730d0433b7e0.a(usb_serial.cpp.o)
 .text._ZN9USBSerial6getDTREv
                0x00000000        0x4 C:\Users\TURBO9~1\AppData\Local\Temp\arduino_cache_432467\core\core_487b1ced4e7b37e8d402730d0433b7e0.a(usb_serial.cpp.o)
 .text._ZN9USBSerial6getRTSEv
                0x00000000        0x4 C:\Users\TURBO9~1\AppData\Local\Temp\arduino_cache_432467\core\core_487b1ced4e7b37e8d402730d0433b7e0.a(usb_serial.cpp.o)
 .text._ZN9USBSerialcvbEv
                0x00000000       0x20 C:\Users\TURBO9~1\AppData\Local\Temp\arduino_cache_432467\core\core_487b1ced4e7b37e8d402730d0433b7e0.a(usb_serial.cpp.o)
 .rodata._ZTV6Stream
                0x00000000       0x28 C:\Users\TURBO9~1\AppData\Local\Temp\arduino_cache_432467\core\core_487b1ced4e7b37e8d402730d0433b7e0.a(usb_serial.cpp.o)
 .text          0x00000000        0x0 C:\Users\TURBO9~1\AppData\Local\Temp\arduino_cache_432467\core\core_487b1ced4e7b37e8d402730d0433b7e0.a(wirish_time.cpp.o)
 .data          0x00000000        0x0 C:\Users\TURBO9~1\AppData\Local\Temp\arduino_cache_432467\core\core_487b1ced4e7b37e8d402730d0433b7e0.a(wirish_time.cpp.o)
 .bss           0x00000000        0x0 C:\Users\TURBO9~1\AppData\Local\Temp\arduino_cache_432467\core\core_487b1ced4e7b37e8d402730d0433b7e0.a(wirish_time.cpp.o)
 .text._ZL6microsv
                0x00000000       0x34 C:\Users\TURBO9~1\AppData\Local\Temp\arduino_cache_432467\core\core_487b1ced4e7b37e8d402730d0433b7e0.a(wirish_time.cpp.o)
 .text._Z5delaym
                0x00000000       0x2a C:\Users\TURBO9~1\AppData\Local\Temp\arduino_cache_432467\core\core_487b1ced4e7b37e8d402730d0433b7e0.a(wirish_time.cpp.o)
 .text          0x00000000        0x0 C:\Users\TURBO9~1\AppData\Local\Temp\arduino_cache_432467\core\core_487b1ced4e7b37e8d402730d0433b7e0.a(hooks.c.o)
 .data          0x00000000        0x0 C:\Users\TURBO9~1\AppData\Local\Temp\arduino_cache_432467\core\core_487b1ced4e7b37e8d402730d0433b7e0.a(hooks.c.o)
 .bss           0x00000000        0x0 C:\Users\TURBO9~1\AppData\Local\Temp\arduino_cache_432467\core\core_487b1ced4e7b37e8d402730d0433b7e0.a(hooks.c.o)
 .text.__empty  0x00000000        0x2 C:\Users\TURBO9~1\AppData\Local\Temp\arduino_cache_432467\core\core_487b1ced4e7b37e8d402730d0433b7e0.a(hooks.c.o)
 .text          0x00000000        0x0 C:\Users\TURBO9~1\AppData\Local\Temp\arduino_cache_432467\core\core_487b1ced4e7b37e8d402730d0433b7e0.a(bkp_f1.c.o)
 .data          0x00000000        0x0 C:\Users\TURBO9~1\AppData\Local\Temp\arduino_cache_432467\core\core_487b1ced4e7b37e8d402730d0433b7e0.a(bkp_f1.c.o)
 .bss           0x00000000        0x0 C:\Users\TURBO9~1\AppData\Local\Temp\arduino_cache_432467\core\core_487b1ced4e7b37e8d402730d0433b7e0.a(bkp_f1.c.o)
 .text.bkp_read
                0x00000000       0x1c C:\Users\TURBO9~1\AppData\Local\Temp\arduino_cache_432467\core\core_487b1ced4e7b37e8d402730d0433b7e0.a(bkp_f1.c.o)
 .data.bkp      0x00000000        0x4 C:\Users\TURBO9~1\AppData\Local\Temp\arduino_cache_432467\core\core_487b1ced4e7b37e8d402730d0433b7e0.a(bkp_f1.c.o)
 .data.BKP      0x00000000        0x4 C:\Users\TURBO9~1\AppData\Local\Temp\arduino_cache_432467\core\core_487b1ced4e7b37e8d402730d0433b7e0.a(bkp_f1.c.o)
 .text          0x00000000        0x0 C:\Users\TURBO9~1\AppData\Local\Temp\arduino_cache_432467\core\core_487b1ced4e7b37e8d402730d0433b7e0.a(dma.c.o)
 .data          0x00000000        0x0 C:\Users\TURBO9~1\AppData\Local\Temp\arduino_cache_432467\core\core_487b1ced4e7b37e8d402730d0433b7e0.a(dma.c.o)
 .bss           0x00000000        0x0 C:\Users\TURBO9~1\AppData\Local\Temp\arduino_cache_432467\core\core_487b1ced4e7b37e8d402730d0433b7e0.a(dma.c.o)
 .text.dma_init
                0x00000000        0x6 C:\Users\TURBO9~1\AppData\Local\Temp\arduino_cache_432467\core\core_487b1ced4e7b37e8d402730d0433b7e0.a(dma.c.o)
 .text._dma_addr_type
                0x00000000       0x28 C:\Users\TURBO9~1\AppData\Local\Temp\arduino_cache_432467\core\core_487b1ced4e7b37e8d402730d0433b7e0.a(dma.c.o)
 .text          0x00000000        0x0 C:\Users\TURBO9~1\AppData\Local\Temp\arduino_cache_432467\core\core_487b1ced4e7b37e8d402730d0433b7e0.a(gpio.c.o)
 .data          0x00000000        0x0 C:\Users\TURBO9~1\AppData\Local\Temp\arduino_cache_432467\core\core_487b1ced4e7b37e8d402730d0433b7e0.a(gpio.c.o)
 .bss           0x00000000        0x0 C:\Users\TURBO9~1\AppData\Local\Temp\arduino_cache_432467\core\core_487b1ced4e7b37e8d402730d0433b7e0.a(gpio.c.o)
 .text          0x00000000        0x0 C:\Users\TURBO9~1\AppData\Local\Temp\arduino_cache_432467\core\core_487b1ced4e7b37e8d402730d0433b7e0.a(i2c.c.o)
 .data          0x00000000        0x0 C:\Users\TURBO9~1\AppData\Local\Temp\arduino_cache_432467\core\core_487b1ced4e7b37e8d402730d0433b7e0.a(i2c.c.o)
 .bss           0x00000000        0x0 C:\Users\TURBO9~1\AppData\Local\Temp\arduino_cache_432467\core\core_487b1ced4e7b37e8d402730d0433b7e0.a(i2c.c.o)
 .text.delay_us.part.0.constprop.6
                0x00000000        0xa C:\Users\TURBO9~1\AppData\Local\Temp\arduino_cache_432467\core\core_487b1ced4e7b37e8d402730d0433b7e0.a(i2c.c.o)
 .text.i2c_bus_reset
                0x00000000       0xb2 C:\Users\TURBO9~1\AppData\Local\Temp\arduino_cache_432467\core\core_487b1ced4e7b37e8d402730d0433b7e0.a(i2c.c.o)
 .text.i2c_init
                0x00000000       0x18 C:\Users\TURBO9~1\AppData\Local\Temp\arduino_cache_432467\core\core_487b1ced4e7b37e8d402730d0433b7e0.a(i2c.c.o)
 .text.i2c_master_enable
                0x00000000       0xe0 C:\Users\TURBO9~1\AppData\Local\Temp\arduino_cache_432467\core\core_487b1ced4e7b37e8d402730d0433b7e0.a(i2c.c.o)
 .text.i2c_master_xfer
                0x00000000       0x5c C:\Users\TURBO9~1\AppData\Local\Temp\arduino_cache_432467\core\core_487b1ced4e7b37e8d402730d0433b7e0.a(i2c.c.o)
 .text          0x00000000      0x370 c:/users/turbo9000/appdata/local/arduino15/packages/arduino/tools/arm-none-eabi-gcc/4.8.3-2014q1/bin/../lib/gcc/arm-none-eabi/4.8.3/armv7-m\libgcc.a(_arm_addsubdf3.o)
 .data          0x00000000        0x0 c:/users/turbo9000/appdata/local/arduino15/packages/arduino/tools/arm-none-eabi-gcc/4.8.3-2014q1/bin/../lib/gcc/arm-none-eabi/4.8.3/armv7-m\libgcc.a(_arm_addsubdf3.o)
 .bss           0x00000000        0x0 c:/users/turbo9000/appdata/local/arduino15/packages/arduino/tools/arm-none-eabi-gcc/4.8.3-2014q1/bin/../lib/gcc/arm-none-eabi/4.8.3/armv7-m\libgcc.a(_arm_addsubdf3.o)
 .text          0x00000000      0x424 c:/users/turbo9000/appdata/local/arduino15/packages/arduino/tools/arm-none-eabi-gcc/4.8.3-2014q1/bin/../lib/gcc/arm-none-eabi/4.8.3/armv7-m\libgcc.a(_arm_muldivdf3.o)
 .data          0x00000000        0x0 c:/users/turbo9000/appdata/local/arduino15/packages/arduino/tools/arm-none-eabi-gcc/4.8.3-2014q1/bin/../lib/gcc/arm-none-eabi/4.8.3/armv7-m\libgcc.a(_arm_muldivdf3.o)
 .bss           0x00000000        0x0 c:/users/turbo9000/appdata/local/arduino15/packages/arduino/tools/arm-none-eabi-gcc/4.8.3-2014q1/bin/../lib/gcc/arm-none-eabi/4.8.3/armv7-m\libgcc.a(_arm_muldivdf3.o)
 .text          0x00000000      0x110 c:/users/turbo9000/appdata/local/arduino15/packages/arduino/tools/arm-none-eabi-gcc/4.8.3-2014q1/bin/../lib/gcc/arm-none-eabi/4.8.3/armv7-m\libgcc.a(_arm_cmpdf2.o)
 .data          0x00000000        0x0 c:/users/turbo9000/appdata/local/arduino15/packages/arduino/tools/arm-none-eabi-gcc/4.8.3-2014q1/bin/../lib/gcc/arm-none-eabi/4.8.3/armv7-m\libgcc.a(_arm_cmpdf2.o)
 .bss           0x00000000        0x0 c:/users/turbo9000/appdata/local/arduino15/packages/arduino/tools/arm-none-eabi-gcc/4.8.3-2014q1/bin/../lib/gcc/arm-none-eabi/4.8.3/armv7-m\libgcc.a(_arm_cmpdf2.o)
 .text          0x00000000       0x50 c:/users/turbo9000/appdata/local/arduino15/packages/arduino/tools/arm-none-eabi-gcc/4.8.3-2014q1/bin/../lib/gcc/arm-none-eabi/4.8.3/armv7-m\libgcc.a(_arm_fixdfsi.o)
 .data          0x00000000        0x0 c:/users/turbo9000/appdata/local/arduino15/packages/arduino/tools/arm-none-eabi-gcc/4.8.3-2014q1/bin/../lib/gcc/arm-none-eabi/4.8.3/armv7-m\libgcc.a(_arm_fixdfsi.o)
 .bss           0x00000000        0x0 c:/users/turbo9000/appdata/local/arduino15/packages/arduino/tools/arm-none-eabi-gcc/4.8.3-2014q1/bin/../lib/gcc/arm-none-eabi/4.8.3/armv7-m\libgcc.a(_arm_fixdfsi.o)
 .text          0x00000000       0x2c c:/users/turbo9000/appdata/local/arduino15/packages/arduino/tools/arm-none-eabi-gcc/4.8.3-2014q1/bin/../lib/gcc/arm-none-eabi/4.8.3/armv7-m\libgcc.a(_aeabi_uldivmod.o)
 .data          0x00000000        0x0 c:/users/turbo9000/appdata/local/arduino15/packages/arduino/tools/arm-none-eabi-gcc/4.8.3-2014q1/bin/../lib/gcc/arm-none-eabi/4.8.3/armv7-m\libgcc.a(_aeabi_uldivmod.o)
 .bss           0x00000000        0x0 c:/users/turbo9000/appdata/local/arduino15/packages/arduino/tools/arm-none-eabi-gcc/4.8.3-2014q1/bin/../lib/gcc/arm-none-eabi/4.8.3/armv7-m\libgcc.a(_aeabi_uldivmod.o)
 .text          0x00000000       0x30 c:/users/turbo9000/appdata/local/arduino15/packages/arduino/tools/arm-none-eabi-gcc/4.8.3-2014q1/bin/../lib/gcc/arm-none-eabi/4.8.3/armv7-m\libgcc.a(_fixdfdi.o)
 .data          0x00000000        0x0 c:/users/turbo9000/appdata/local/arduino15/packages/arduino/tools/arm-none-eabi-gcc/4.8.3-2014q1/bin/../lib/gcc/arm-none-eabi/4.8.3/armv7-m\libgcc.a(_fixdfdi.o)
 .bss           0x00000000        0x0 c:/users/turbo9000/appdata/local/arduino15/packages/arduino/tools/arm-none-eabi-gcc/4.8.3-2014q1/bin/../lib/gcc/arm-none-eabi/4.8.3/armv7-m\libgcc.a(_fixdfdi.o)
 .text          0x00000000       0x44 c:/users/turbo9000/appdata/local/arduino15/packages/arduino/tools/arm-none-eabi-gcc/4.8.3-2014q1/bin/../lib/gcc/arm-none-eabi/4.8.3/armv7-m\libgcc.a(_fixunsdfdi.o)
 .data          0x00000000        0x0 c:/users/turbo9000/appdata/local/arduino15/packages/arduino/tools/arm-none-eabi-gcc/4.8.3-2014q1/bin/../lib/gcc/arm-none-eabi/4.8.3/armv7-m\libgcc.a(_fixunsdfdi.o)
 .bss           0x00000000        0x0 c:/users/turbo9000/appdata/local/arduino15/packages/arduino/tools/arm-none-eabi-gcc/4.8.3-2014q1/bin/../lib/gcc/arm-none-eabi/4.8.3/armv7-m\libgcc.a(_fixunsdfdi.o)
 .text          0x00000000       0x60 c:/users/turbo9000/appdata/local/arduino15/packages/arduino/tools/arm-none-eabi-gcc/4.8.3-2014q1/bin/../lib/gcc/arm-none-eabi/4.8.3/armv7-m\libgcc.a(bpabi.o)
 .data          0x00000000        0x0 c:/users/turbo9000/appdata/local/arduino15/packages/arduino/tools/arm-none-eabi-gcc/4.8.3-2014q1/bin/../lib/gcc/arm-none-eabi/4.8.3/armv7-m\libgcc.a(bpabi.o)
 .bss           0x00000000        0x0 c:/users/turbo9000/appdata/local/arduino15/packages/arduino/tools/arm-none-eabi-gcc/4.8.3-2014q1/bin/../lib/gcc/arm-none-eabi/4.8.3/armv7-m\libgcc.a(bpabi.o)
 .text          0x00000000        0x4 c:/users/turbo9000/appdata/local/arduino15/packages/arduino/tools/arm-none-eabi-gcc/4.8.3-2014q1/bin/../lib/gcc/arm-none-eabi/4.8.3/armv7-m\libgcc.a(_dvmd_tls.o)
 .data          0x00000000        0x0 c:/users/turbo9000/appdata/local/arduino15/packages/arduino/tools/arm-none-eabi-gcc/4.8.3-2014q1/bin/../lib/gcc/arm-none-eabi/4.8.3/armv7-m\libgcc.a(_dvmd_tls.o)
 .bss           0x00000000        0x0 c:/users/turbo9000/appdata/local/arduino15/packages/arduino/tools/arm-none-eabi-gcc/4.8.3-2014q1/bin/../lib/gcc/arm-none-eabi/4.8.3/armv7-m\libgcc.a(_dvmd_tls.o)
 .text          0x00000000       0x40 c:/users/turbo9000/appdata/local/arduino15/packages/arduino/tools/arm-none-eabi-gcc/4.8.3-2014q1/bin/../lib/gcc/arm-none-eabi/4.8.3/armv7-m\libgcc.a(_arm_fixunsdfsi.o)
 .data          0x00000000        0x0 c:/users/turbo9000/appdata/local/arduino15/packages/arduino/tools/arm-none-eabi-gcc/4.8.3-2014q1/bin/../lib/gcc/arm-none-eabi/4.8.3/armv7-m\libgcc.a(_arm_fixunsdfsi.o)
 .bss           0x00000000        0x0 c:/users/turbo9000/appdata/local/arduino15/packages/arduino/tools/arm-none-eabi-gcc/4.8.3-2014q1/bin/../lib/gcc/arm-none-eabi/4.8.3/armv7-m\libgcc.a(_arm_fixunsdfsi.o)
 .text          0x00000000      0x2a0 c:/users/turbo9000/appdata/local/arduino15/packages/arduino/tools/arm-none-eabi-gcc/4.8.3-2014q1/bin/../lib/gcc/arm-none-eabi/4.8.3/armv7-m\libgcc.a(_divdi3.o)
 .data          0x00000000        0x0 c:/users/turbo9000/appdata/local/arduino15/packages/arduino/tools/arm-none-eabi-gcc/4.8.3-2014q1/bin/../lib/gcc/arm-none-eabi/4.8.3/armv7-m\libgcc.a(_divdi3.o)
 .bss           0x00000000        0x0 c:/users/turbo9000/appdata/local/arduino15/packages/arduino/tools/arm-none-eabi-gcc/4.8.3-2014q1/bin/../lib/gcc/arm-none-eabi/4.8.3/armv7-m\libgcc.a(_divdi3.o)
 .ARM.extab     0x00000000        0x0 c:/users/turbo9000/appdata/local/arduino15/packages/arduino/tools/arm-none-eabi-gcc/4.8.3-2014q1/bin/../lib/gcc/arm-none-eabi/4.8.3/armv7-m\libgcc.a(_divdi3.o)
 .ARM.exidx     0x00000000        0x8 c:/users/turbo9000/appdata/local/arduino15/packages/arduino/tools/arm-none-eabi-gcc/4.8.3-2014q1/bin/../lib/gcc/arm-none-eabi/4.8.3/armv7-m\libgcc.a(_divdi3.o)
 .text          0x00000000      0x290 c:/users/turbo9000/appdata/local/arduino15/packages/arduino/tools/arm-none-eabi-gcc/4.8.3-2014q1/bin/../lib/gcc/arm-none-eabi/4.8.3/armv7-m\libgcc.a(_udivdi3.o)
 .data          0x00000000        0x0 c:/users/turbo9000/appdata/local/arduino15/packages/arduino/tools/arm-none-eabi-gcc/4.8.3-2014q1/bin/../lib/gcc/arm-none-eabi/4.8.3/armv7-m\libgcc.a(_udivdi3.o)
 .bss           0x00000000        0x0 c:/users/turbo9000/appdata/local/arduino15/packages/arduino/tools/arm-none-eabi-gcc/4.8.3-2014q1/bin/../lib/gcc/arm-none-eabi/4.8.3/armv7-m\libgcc.a(_udivdi3.o)
 .ARM.extab     0x00000000        0x0 c:/users/turbo9000/appdata/local/arduino15/packages/arduino/tools/arm-none-eabi-gcc/4.8.3-2014q1/bin/../lib/gcc/arm-none-eabi/4.8.3/armv7-m\libgcc.a(_udivdi3.o)
 .ARM.exidx     0x00000000        0x8 c:/users/turbo9000/appdata/local/arduino15/packages/arduino/tools/arm-none-eabi-gcc/4.8.3-2014q1/bin/../lib/gcc/arm-none-eabi/4.8.3/armv7-m\libgcc.a(_udivdi3.o)
 .text          0x00000000        0x0 c:/users/turbo9000/appdata/local/arduino15/packages/arduino/tools/arm-none-eabi-gcc/4.8.3-2014q1/bin/../lib/gcc/arm-none-eabi/4.8.3/../../../../arm-none-eabi/lib/armv7-m\libc.a(lib_a-errno.o)
 .data          0x00000000        0x0 c:/users/turbo9000/appdata/local/arduino15/packages/arduino/tools/arm-none-eabi-gcc/4.8.3-2014q1/bin/../lib/gcc/arm-none-eabi/4.8.3/../../../../arm-none-eabi/lib/armv7-m\libc.a(lib_a-errno.o)
 .bss           0x00000000        0x0 c:/users/turbo9000/appdata/local/arduino15/packages/arduino/tools/arm-none-eabi-gcc/4.8.3-2014q1/bin/../lib/gcc/arm-none-eabi/4.8.3/../../../../arm-none-eabi/lib/armv7-m\libc.a(lib_a-errno.o)
 .text.__errno  0x00000000        0xc c:/users/turbo9000/appdata/local/arduino15/packages/arduino/tools/arm-none-eabi-gcc/4.8.3-2014q1/bin/../lib/gcc/arm-none-eabi/4.8.3/../../../../arm-none-eabi/lib/armv7-m\libc.a(lib_a-errno.o)
 .text          0x00000000        0x0 c:/users/turbo9000/appdata/local/arduino15/packages/arduino/tools/arm-none-eabi-gcc/4.8.3-2014q1/bin/../lib/gcc/arm-none-eabi/4.8.3/../../../../arm-none-eabi/lib/armv7-m\libc.a(lib_a-exit.o)
 .data          0x00000000        0x0 c:/users/turbo9000/appdata/local/arduino15/packages/arduino/tools/arm-none-eabi-gcc/4.8.3-2014q1/bin/../lib/gcc/arm-none-eabi/4.8.3/../../../../arm-none-eabi/lib/armv7-m\libc.a(lib_a-exit.o)
 .bss           0x00000000        0x0 c:/users/turbo9000/appdata/local/arduino15/packages/arduino/tools/arm-none-eabi-gcc/4.8.3-2014q1/bin/../lib/gcc/arm-none-eabi/4.8.3/../../../../arm-none-eabi/lib/armv7-m\libc.a(lib_a-exit.o)
 .text          0x00000000        0x0 c:/users/turbo9000/appdata/local/arduino15/packages/arduino/tools/arm-none-eabi-gcc/4.8.3-2014q1/bin/../lib/gcc/arm-none-eabi/4.8.3/../../../../arm-none-eabi/lib/armv7-m\libc.a(lib_a-impure.o)
 .data          0x00000000        0x0 c:/users/turbo9000/appdata/local/arduino15/packages/arduino/tools/arm-none-eabi-gcc/4.8.3-2014q1/bin/../lib/gcc/arm-none-eabi/4.8.3/../../../../arm-none-eabi/lib/armv7-m\libc.a(lib_a-impure.o)
 .bss           0x00000000        0x0 c:/users/turbo9000/appdata/local/arduino15/packages/arduino/tools/arm-none-eabi-gcc/4.8.3-2014q1/bin/../lib/gcc/arm-none-eabi/4.8.3/../../../../arm-none-eabi/lib/armv7-m\libc.a(lib_a-impure.o)
 .data._impure_ptr
                0x00000000        0x4 c:/users/turbo9000/appdata/local/arduino15/packages/arduino/tools/arm-none-eabi-gcc/4.8.3-2014q1/bin/../lib/gcc/arm-none-eabi/4.8.3/../../../../arm-none-eabi/lib/armv7-m\libc.a(lib_a-impure.o)
 .text          0x00000000        0x0 c:/users/turbo9000/appdata/local/arduino15/packages/arduino/tools/arm-none-eabi-gcc/4.8.3-2014q1/bin/../lib/gcc/arm-none-eabi/4.8.3/../../../../arm-none-eabi/lib/armv7-m\libc.a(lib_a-init.o)
 .data          0x00000000        0x0 c:/users/turbo9000/appdata/local/arduino15/packages/arduino/tools/arm-none-eabi-gcc/4.8.3-2014q1/bin/../lib/gcc/arm-none-eabi/4.8.3/../../../../arm-none-eabi/lib/armv7-m\libc.a(lib_a-init.o)
 .bss           0x00000000        0x0 c:/users/turbo9000/appdata/local/arduino15/packages/arduino/tools/arm-none-eabi-gcc/4.8.3-2014q1/bin/../lib/gcc/arm-none-eabi/4.8.3/../../../../arm-none-eabi/lib/armv7-m\libc.a(lib_a-init.o)
 .text          0x00000000        0x0 c:/users/turbo9000/appdata/local/arduino15/packages/arduino/tools/arm-none-eabi-gcc/4.8.3-2014q1/bin/../lib/gcc/arm-none-eabi/4.8.3/../../../../arm-none-eabi/lib/armv7-m\libc.a(lib_a-memset.o)
 .data          0x00000000        0x0 c:/users/turbo9000/appdata/local/arduino15/packages/arduino/tools/arm-none-eabi-gcc/4.8.3-2014q1/bin/../lib/gcc/arm-none-eabi/4.8.3/../../../../arm-none-eabi/lib/armv7-m\libc.a(lib_a-memset.o)
 .bss           0x00000000        0x0 c:/users/turbo9000/appdata/local/arduino15/packages/arduino/tools/arm-none-eabi-gcc/4.8.3-2014q1/bin/../lib/gcc/arm-none-eabi/4.8.3/../../../../arm-none-eabi/lib/armv7-m\libc.a(lib_a-memset.o)
 .text.memset   0x00000000       0x94 c:/users/turbo9000/appdata/local/arduino15/packages/arduino/tools/arm-none-eabi-gcc/4.8.3-2014q1/bin/../lib/gcc/arm-none-eabi/4.8.3/../../../../arm-none-eabi/lib/armv7-m\libc.a(lib_a-memset.o)
 .text          0x00000000        0x0 c:/users/turbo9000/appdata/local/arduino15/packages/arduino/tools/arm-none-eabi-gcc/4.8.3-2014q1/bin/../lib/gcc/arm-none-eabi/4.8.3/../../../../arm-none-eabi/lib/armv7-m\libc.a(lib_a-strlen.o)
 .data          0x00000000        0x0 c:/users/turbo9000/appdata/local/arduino15/packages/arduino/tools/arm-none-eabi-gcc/4.8.3-2014q1/bin/../lib/gcc/arm-none-eabi/4.8.3/../../../../arm-none-eabi/lib/armv7-m\libc.a(lib_a-strlen.o)
 .bss           0x00000000        0x0 c:/users/turbo9000/appdata/local/arduino15/packages/arduino/tools/arm-none-eabi-gcc/4.8.3-2014q1/bin/../lib/gcc/arm-none-eabi/4.8.3/../../../../arm-none-eabi/lib/armv7-m\libc.a(lib_a-strlen.o)
 .text          0x00000000        0x0 c:/users/turbo9000/appdata/local/arduino15/packages/arduino/tools/arm-none-eabi-gcc/4.8.3-2014q1/bin/../lib/gcc/arm-none-eabi/4.8.3/../../../../arm-none-eabi/lib/armv7-m\libc.a(lib_a-__call_atexit.o)
 .data          0x00000000        0x0 c:/users/turbo9000/appdata/local/arduino15/packages/arduino/tools/arm-none-eabi-gcc/4.8.3-2014q1/bin/../lib/gcc/arm-none-eabi/4.8.3/../../../../arm-none-eabi/lib/armv7-m\libc.a(lib_a-__call_atexit.o)
 .bss           0x00000000        0x0 c:/users/turbo9000/appdata/local/arduino15/packages/arduino/tools/arm-none-eabi-gcc/4.8.3-2014q1/bin/../lib/gcc/arm-none-eabi/4.8.3/../../../../arm-none-eabi/lib/armv7-m\libc.a(lib_a-__call_atexit.o)
 .text          0x00000000        0x0 c:/users/turbo9000/appdata/local/arduino15/packages/arduino/tools/arm-none-eabi-gcc/4.8.3-2014q1/bin/../lib/gcc/arm-none-eabi/4.8.3/../../../../arm-none-eabi/lib/armv7-m\libc.a(lib_a-atexit.o)
 .data          0x00000000        0x0 c:/users/turbo9000/appdata/local/arduino15/packages/arduino/tools/arm-none-eabi-gcc/4.8.3-2014q1/bin/../lib/gcc/arm-none-eabi/4.8.3/../../../../arm-none-eabi/lib/armv7-m\libc.a(lib_a-atexit.o)
 .bss           0x00000000        0x0 c:/users/turbo9000/appdata/local/arduino15/packages/arduino/tools/arm-none-eabi-gcc/4.8.3-2014q1/bin/../lib/gcc/arm-none-eabi/4.8.3/../../../../arm-none-eabi/lib/armv7-m\libc.a(lib_a-atexit.o)
 .text          0x00000000        0x0 c:/users/turbo9000/appdata/local/arduino15/packages/arduino/tools/arm-none-eabi-gcc/4.8.3-2014q1/bin/../lib/gcc/arm-none-eabi/4.8.3/../../../../arm-none-eabi/lib/armv7-m\libc.a(lib_a-fini.o)
 .data          0x00000000        0x0 c:/users/turbo9000/appdata/local/arduino15/packages/arduino/tools/arm-none-eabi-gcc/4.8.3-2014q1/bin/../lib/gcc/arm-none-eabi/4.8.3/../../../../arm-none-eabi/lib/armv7-m\libc.a(lib_a-fini.o)
 .bss           0x00000000        0x0 c:/users/turbo9000/appdata/local/arduino15/packages/arduino/tools/arm-none-eabi-gcc/4.8.3-2014q1/bin/../lib/gcc/arm-none-eabi/4.8.3/../../../../arm-none-eabi/lib/armv7-m\libc.a(lib_a-fini.o)
 .text          0x00000000        0x0 c:/users/turbo9000/appdata/local/arduino15/packages/arduino/tools/arm-none-eabi-gcc/4.8.3-2014q1/bin/../lib/gcc/arm-none-eabi/4.8.3/../../../../arm-none-eabi/lib/armv7-m\libc.a(lib_a-__atexit.o)
 .data          0x00000000        0x0 c:/users/turbo9000/appdata/local/arduino15/packages/arduino/tools/arm-none-eabi-gcc/4.8.3-2014q1/bin/../lib/gcc/arm-none-eabi/4.8.3/../../../../arm-none-eabi/lib/armv7-m\libc.a(lib_a-__atexit.o)
 .bss           0x00000000        0x0 c:/users/turbo9000/appdata/local/arduino15/packages/arduino/tools/arm-none-eabi-gcc/4.8.3-2014q1/bin/../lib/gcc/arm-none-eabi/4.8.3/../../../../arm-none-eabi/lib/armv7-m\libc.a(lib_a-__atexit.o)
 .text          0x00000000        0x0 c:/users/turbo9000/appdata/local/arduino15/packages/arduino/tools/arm-none-eabi-gcc/4.8.3-2014q1/bin/../lib/gcc/arm-none-eabi/4.8.3/armv7-m/crtend.o
 .data          0x00000000        0x0 c:/users/turbo9000/appdata/local/arduino15/packages/arduino/tools/arm-none-eabi-gcc/4.8.3-2014q1/bin/../lib/gcc/arm-none-eabi/4.8.3/armv7-m/crtend.o
 .bss           0x00000000        0x0 c:/users/turbo9000/appdata/local/arduino15/packages/arduino/tools/arm-none-eabi-gcc/4.8.3-2014q1/bin/../lib/gcc/arm-none-eabi/4.8.3/armv7-m/crtend.o
 .eh_frame      0x00000000        0x4 c:/users/turbo9000/appdata/local/arduino15/packages/arduino/tools/arm-none-eabi-gcc/4.8.3-2014q1/bin/../lib/gcc/arm-none-eabi/4.8.3/armv7-m/crtend.o
 .jcr           0x00000000        0x4 c:/users/turbo9000/appdata/local/arduino15/packages/arduino/tools/arm-none-eabi-gcc/4.8.3-2014q1/bin/../lib/gcc/arm-none-eabi/4.8.3/armv7-m/crtend.o
 .text          0x00000000        0x0 c:/users/turbo9000/appdata/local/arduino15/packages/arduino/tools/arm-none-eabi-gcc/4.8.3-2014q1/bin/../lib/gcc/arm-none-eabi/4.8.3/armv7-m/crtn.o
 .data          0x00000000        0x0 c:/users/turbo9000/appdata/local/arduino15/packages/arduino/tools/arm-none-eabi-gcc/4.8.3-2014q1/bin/../lib/gcc/arm-none-eabi/4.8.3/armv7-m/crtn.o
 .bss           0x00000000        0x0 c:/users/turbo9000/appdata/local/arduino15/packages/arduino/tools/arm-none-eabi-gcc/4.8.3-2014q1/bin/../lib/gcc/arm-none-eabi/4.8.3/armv7-m/crtn.o

Memory Configuration

Name             Origin             Length             Attributes
ram              0x20000000         0x00005000         xrw
rom              0x08000000         0x00010000         xr
*default*        0x00000000         0xffffffff

Linker script and memory map

LOAD c:/users/turbo9000/appdata/local/arduino15/packages/arduino/tools/arm-none-eabi-gcc/4.8.3-2014q1/bin/../lib/gcc/arm-none-eabi/4.8.3/armv7-m/crti.o
LOAD c:/users/turbo9000/appdata/local/arduino15/packages/arduino/tools/arm-none-eabi-gcc/4.8.3-2014q1/bin/../lib/gcc/arm-none-eabi/4.8.3/armv7-m/crtbegin.o
LOAD c:/users/turbo9000/appdata/local/arduino15/packages/arduino/tools/arm-none-eabi-gcc/4.8.3-2014q1/bin/../lib/gcc/arm-none-eabi/4.8.3/../../../../arm-none-eabi/lib/armv7-m/crt0.o
LOAD c:/users/turbo9000/appdata/local/arduino15/packages/arduino/tools/arm-none-eabi-gcc/4.8.3-2014q1/bin/../lib/gcc/arm-none-eabi/4.8.3/armv7-m\libgcc.a
START GROUP
LOAD C:\Users\TURBO9~1\AppData\Local\Temp\arduino_build_805463\sketch\blue_pill_keyboard.ino.cpp.o
LOAD C:\Users\TURBO9~1\AppData\Local\Temp\arduino_build_805463\core\board.cpp.o
LOAD C:\Users\TURBO9~1\AppData\Local\Temp\arduino_build_805463\core\wirish\boards.cpp.o
LOAD C:\Users\TURBO9~1\AppData\Local\Temp\arduino_build_805463\core\wirish\boards_setup.cpp.o
LOAD C:\Users\TURBO9~1\AppData\Local\Temp\arduino_build_805463\core\wirish\start.S.o
LOAD C:\Users\TURBO9~1\AppData\Local\Temp\arduino_build_805463\core\wirish\start_c.c.o
LOAD C:\Users\TURBO9~1\AppData\Local\Temp\arduino_build_805463\core\wirish\syscalls.c.o
LOAD C:\Users\TURBO9~1\AppData\Local\Temp\arduino_cache_432467\core\core_487b1ced4e7b37e8d402730d0433b7e0.a
END GROUP
LOAD c:/users/turbo9000/appdata/local/arduino15/packages/arduino/tools/arm-none-eabi-gcc/4.8.3-2014q1/bin/../lib/gcc/arm-none-eabi/4.8.3/../../../../arm-none-eabi/lib/armv7-m\libstdc++.a
LOAD c:/users/turbo9000/appdata/local/arduino15/packages/arduino/tools/arm-none-eabi-gcc/4.8.3-2014q1/bin/../lib/gcc/arm-none-eabi/4.8.3/../../../../arm-none-eabi/lib/armv7-m\libm.a
START GROUP
LOAD c:/users/turbo9000/appdata/local/arduino15/packages/arduino/tools/arm-none-eabi-gcc/4.8.3-2014q1/bin/../lib/gcc/arm-none-eabi/4.8.3/armv7-m\libgcc.a
LOAD c:/users/turbo9000/appdata/local/arduino15/packages/arduino/tools/arm-none-eabi-gcc/4.8.3-2014q1/bin/../lib/gcc/arm-none-eabi/4.8.3/../../../../arm-none-eabi/lib/armv7-m\libc.a
END GROUP
LOAD c:/users/turbo9000/appdata/local/arduino15/packages/arduino/tools/arm-none-eabi-gcc/4.8.3-2014q1/bin/../lib/gcc/arm-none-eabi/4.8.3/armv7-m/crtend.o
LOAD c:/users/turbo9000/appdata/local/arduino15/packages/arduino/tools/arm-none-eabi-gcc/4.8.3-2014q1/bin/../lib/gcc/arm-none-eabi/4.8.3/armv7-m/crtn.o
START GROUP
LOAD c:/users/turbo9000/appdata/local/arduino15/packages/arduino/tools/arm-none-eabi-gcc/4.8.3-2014q1/bin/../lib/gcc/arm-none-eabi/4.8.3/armv7-m\libgcc.a
LOAD c:/users/turbo9000/appdata/local/arduino15/packages/arduino/tools/arm-none-eabi-gcc/4.8.3-2014q1/bin/../lib/gcc/arm-none-eabi/4.8.3/../../../../arm-none-eabi/lib/armv7-m\libc.a
LOAD c:/users/turbo9000/appdata/local/arduino15/packages/arduino/tools/arm-none-eabi-gcc/4.8.3-2014q1/bin/../lib/gcc/arm-none-eabi/4.8.3/../../../../arm-none-eabi/lib/armv7-m\libm.a
END GROUP
START GROUP
LOAD c:/users/turbo9000/appdata/local/arduino15/packages/arduino/tools/arm-none-eabi-gcc/4.8.3-2014q1/bin/../lib/gcc/arm-none-eabi/4.8.3/../../../../arm-none-eabi/lib/armv7-m\libnosys.a
END GROUP
                0x20005000                PROVIDE (__msp_init, (ORIGIN (ram) + 0x5000))
                0x08000e44                PROVIDE (__exc_reset, __start__)

.text           0x08000000     0x358c
                0x08000000                __text_start__ = .
 *(.stm32.interrupt_vector)
 .stm32.interrupt_vector
                0x08000000       0xec C:\Users\TURBO9~1\AppData\Local\Temp\arduino_cache_432467\core\core_487b1ced4e7b37e8d402730d0433b7e0.a(vector_table.S.o)
                0x08000000                __stm32_vector_table
 *(.text .text.* .gnu.linkonce.t.*)
 .text          0x080000ec       0x54 c:/users/turbo9000/appdata/local/arduino15/packages/arduino/tools/arm-none-eabi-gcc/4.8.3-2014q1/bin/../lib/gcc/arm-none-eabi/4.8.3/armv7-m/crtbegin.o
 .text._ZL13get_scan_codev
                0x08000140       0x34 C:\Users\TURBO9~1\AppData\Local\Temp\arduino_build_805463\sketch\blue_pill_keyboard.ino.cpp.o
 .text._ZL28get_byte_to_send_to_keyboardv
                0x08000174       0x34 C:\Users\TURBO9~1\AppData\Local\Temp\arduino_build_805463\sketch\blue_pill_keyboard.ino.cpp.o
 .text._Z8initPinsv
                0x080001a8       0x48 C:\Users\TURBO9~1\AppData\Local\Temp\arduino_build_805463\sketch\blue_pill_keyboard.ino.cpp.o
                0x080001a8                initPins()
 .text._Z5setupv
                0x080001f0       0x8c C:\Users\TURBO9~1\AppData\Local\Temp\arduino_build_805463\sketch\blue_pill_keyboard.ino.cpp.o
                0x080001f0                setup()
 .text._Z10waitForPinss
                0x0800027c       0x44 C:\Users\TURBO9~1\AppData\Local\Temp\arduino_build_805463\sketch\blue_pill_keyboard.ino.cpp.o
                0x0800027c                waitForPin(short, short)
 .text._Z7endWaitv
                0x080002c0       0x20 C:\Users\TURBO9~1\AppData\Local\Temp\arduino_build_805463\sketch\blue_pill_keyboard.ino.cpp.o
                0x080002c0                endWait()
 .text._Z7sendNowv
                0x080002e0       0xb4 C:\Users\TURBO9~1\AppData\Local\Temp\arduino_build_805463\sketch\blue_pill_keyboard.ino.cpp.o
                0x080002e0                sendNow()
 .text._Z17sendResendRequestv
                0x08000394       0x6c C:\Users\TURBO9~1\AppData\Local\Temp\arduino_build_805463\sketch\blue_pill_keyboard.ino.cpp.o
                0x08000394                sendResendRequest()
 .text._Z8send_bitv
                0x08000400       0xcc C:\Users\TURBO9~1\AppData\Local\Temp\arduino_build_805463\sketch\blue_pill_keyboard.ino.cpp.o
                0x08000400                send_bit()
 .text._Z15clearSendBufferv
                0x080004cc       0x14 C:\Users\TURBO9~1\AppData\Local\Temp\arduino_build_805463\sketch\blue_pill_keyboard.ino.cpp.o
                0x080004cc                clearSendBuffer()
 .text._Z29handleParityErrorFromKeyboardv
                0x080004e0       0x5c C:\Users\TURBO9~1\AppData\Local\Temp\arduino_build_805463\sketch\blue_pill_keyboard.ino.cpp.o
                0x080004e0                handleParityErrorFromKeyboard()
 .text._Z19addByteToSendBufferh
                0x0800053c       0x3c C:\Users\TURBO9~1\AppData\Local\Temp\arduino_build_805463\sketch\blue_pill_keyboard.ino.cpp.o
                0x0800053c                addByteToSendBuffer(unsigned char)
 .text._Z21sendEnableScanCommandv
                0x08000578        0x6 C:\Users\TURBO9~1\AppData\Local\Temp\arduino_build_805463\sketch\blue_pill_keyboard.ino.cpp.o
                0x08000578                sendEnableScanCommand()
 *fill*         0x0800057e        0x2 
 .text._Z19processByteFromSegah
                0x08000580       0x7c C:\Users\TURBO9~1\AppData\Local\Temp\arduino_build_805463\sketch\blue_pill_keyboard.ino.cpp.o
                0x08000580                processByteFromSega(unsigned char)
 .text._Z14Listen_To_Segav
                0x080005fc      0x140 C:\Users\TURBO9~1\AppData\Local\Temp\arduino_build_805463\sketch\blue_pill_keyboard.ino.cpp.o
                0x080005fc                Listen_To_Sega()
 .text._Z12Talk_To_Segav
                0x0800073c      0x1e4 C:\Users\TURBO9~1\AppData\Local\Temp\arduino_build_805463\sketch\blue_pill_keyboard.ino.cpp.o
                0x0800073c                Talk_To_Sega()
 .text._Z4loopv
                0x08000920       0xa8 C:\Users\TURBO9~1\AppData\Local\Temp\arduino_build_805463\sketch\blue_pill_keyboard.ino.cpp.o
                0x08000920                loop()
 .text._Z20sendTypematicAndLEDsv
                0x080009c8       0x2c C:\Users\TURBO9~1\AppData\Local\Temp\arduino_build_805463\sketch\blue_pill_keyboard.ino.cpp.o
                0x080009c8                sendTypematicAndLEDs()
 .text._Z23processByteFromKeyboardv
                0x080009f4      0x108 C:\Users\TURBO9~1\AppData\Local\Temp\arduino_build_805463\sketch\blue_pill_keyboard.ino.cpp.o
                0x080009f4                processByteFromKeyboard()
 .text._Z12ps2interruptv
                0x08000afc       0xf8 C:\Users\TURBO9~1\AppData\Local\Temp\arduino_build_805463\sketch\blue_pill_keyboard.ino.cpp.o
                0x08000afc                ps2interrupt()
 .text._Z9boardInitv
                0x08000bf4        0x2 C:\Users\TURBO9~1\AppData\Local\Temp\arduino_build_805463\core\board.cpp.o
                0x08000bf4                boardInit()
 *fill*         0x08000bf6        0x2 
 .text.startup._GLOBAL__sub_I__Z9boardInitv
                0x08000bf8       0x48 C:\Users\TURBO9~1\AppData\Local\Temp\arduino_build_805463\core\board.cpp.o
 .text._ZL18adc_default_configP7adc_dev
                0x08000c40       0x1c C:\Users\TURBO9~1\AppData\Local\Temp\arduino_build_805463\core\wirish\boards.cpp.o
 .text._ZL20timer_default_configP9timer_dev
                0x08000c5c       0x9e C:\Users\TURBO9~1\AppData\Local\Temp\arduino_build_805463\core\wirish\boards.cpp.o
 *fill*         0x08000cfa        0x2 
 .text._Z4initv
                0x08000cfc       0xbc C:\Users\TURBO9~1\AppData\Local\Temp\arduino_build_805463\core\wirish\boards.cpp.o
                0x08000cfc                init()
 .text._ZN6wirish4priv15board_reset_pllEv
                0x08000db8        0x2 C:\Users\TURBO9~1\AppData\Local\Temp\arduino_build_805463\core\wirish\boards_setup.cpp.o
                0x08000db8                wirish::priv::board_reset_pll()
 .text._ZN6wirish4priv28board_setup_clock_prescalersEv
                0x08000dba       0x2e C:\Users\TURBO9~1\AppData\Local\Temp\arduino_build_805463\core\wirish\boards_setup.cpp.o
                0x08000dba                wirish::priv::board_setup_clock_prescalers()
 .text._ZN6wirish4priv16board_setup_gpioEv
                0x08000de8        0x4 C:\Users\TURBO9~1\AppData\Local\Temp\arduino_build_805463\core\wirish\boards_setup.cpp.o
                0x08000de8                wirish::priv::board_setup_gpio()
 .text._ZN6wirish4priv15board_setup_usbEv
                0x08000dec       0x54 C:\Users\TURBO9~1\AppData\Local\Temp\arduino_build_805463\core\wirish\boards_setup.cpp.o
                0x08000dec                wirish::priv::board_setup_usb()
 .text._ZN6wirish4priv11series_initEv
                0x08000e40        0x4 C:\Users\TURBO9~1\AppData\Local\Temp\arduino_build_805463\core\wirish\boards_setup.cpp.o
                0x08000e40                wirish::priv::series_init()
 .text          0x08000e44       0x10 C:\Users\TURBO9~1\AppData\Local\Temp\arduino_build_805463\core\wirish\start.S.o
                0x08000e44                __start__
 .text.start_c  0x08000e54       0x64 C:\Users\TURBO9~1\AppData\Local\Temp\arduino_build_805463\core\wirish\start_c.c.o
                0x08000e54                start_c
 .text._exit    0x08000eb8        0x2 C:\Users\TURBO9~1\AppData\Local\Temp\arduino_build_805463\core\wirish\syscalls.c.o
                0x08000eb8                _exit
 .text.rb_full_count
                0x08000eba       0x22 C:\Users\TURBO9~1\AppData\Local\Temp\arduino_cache_432467\core\core_487b1ced4e7b37e8d402730d0433b7e0.a(HardwareSerial.cpp.o)
 .text._ZN14HardwareSerial4readEv
                0x08000edc       0x3a C:\Users\TURBO9~1\AppData\Local\Temp\arduino_cache_432467\core\core_487b1ced4e7b37e8d402730d0433b7e0.a(HardwareSerial.cpp.o)
                0x08000edc                HardwareSerial::read()
 .text._ZN14HardwareSerial9availableEv
                0x08000f16        0xc C:\Users\TURBO9~1\AppData\Local\Temp\arduino_cache_432467\core\core_487b1ced4e7b37e8d402730d0433b7e0.a(HardwareSerial.cpp.o)
                0x08000f16                HardwareSerial::available()
 .text._ZN14HardwareSerial4peekEv
                0x08000f22       0x22 C:\Users\TURBO9~1\AppData\Local\Temp\arduino_cache_432467\core\core_487b1ced4e7b37e8d402730d0433b7e0.a(HardwareSerial.cpp.o)
                0x08000f22                HardwareSerial::peek()
 .text._ZN14HardwareSerial5flushEv
                0x08000f44       0x1a C:\Users\TURBO9~1\AppData\Local\Temp\arduino_cache_432467\core\core_487b1ced4e7b37e8d402730d0433b7e0.a(HardwareSerial.cpp.o)
                0x08000f44                HardwareSerial::flush()
 .text._ZN14HardwareSerial5writeEh
                0x08000f5e       0x1e C:\Users\TURBO9~1\AppData\Local\Temp\arduino_cache_432467\core\core_487b1ced4e7b37e8d402730d0433b7e0.a(HardwareSerial.cpp.o)
                0x08000f5e                HardwareSerial::write(unsigned char)
 .text._ZN14HardwareSerialC2EP9usart_devhh
                0x08000f7c       0x1c C:\Users\TURBO9~1\AppData\Local\Temp\arduino_cache_432467\core\core_487b1ced4e7b37e8d402730d0433b7e0.a(HardwareSerial.cpp.o)
                0x08000f7c                HardwareSerial::HardwareSerial(usart_dev*, unsigned char, unsigned char)
                0x08000f7c                HardwareSerial::HardwareSerial(usart_dev*, unsigned char, unsigned char)
 .text._ZN5Print5writeEPKvm
                0x08000f98       0x20 C:\Users\TURBO9~1\AppData\Local\Temp\arduino_cache_432467\core\core_487b1ced4e7b37e8d402730d0433b7e0.a(Print.cpp.o)
                0x08000f98                Print::write(void const*, unsigned long)
 .text._ZN5Print5writeEPKc
                0x08000fb8       0x1e C:\Users\TURBO9~1\AppData\Local\Temp\arduino_cache_432467\core\core_487b1ced4e7b37e8d402730d0433b7e0.a(Print.cpp.o)
                0x08000fb8                Print::write(char const*)
 *fill*         0x08000fd6        0x2 
 .text._Z15attachInterrupthPFvvE17ExtIntTriggerMode
                0x08000fd8       0x3c C:\Users\TURBO9~1\AppData\Local\Temp\arduino_cache_432467\core\core_487b1ced4e7b37e8d402730d0433b7e0.a(ext_interrupts.cpp.o)
                0x08000fd8                attachInterrupt(unsigned char, void (*)(), ExtIntTriggerMode)
 .text.adc_init
                0x08001014       0x14 C:\Users\TURBO9~1\AppData\Local\Temp\arduino_cache_432467\core\core_487b1ced4e7b37e8d402730d0433b7e0.a(adc.c.o)
                0x08001014                adc_init
 .text.adc_set_extsel
                0x08001028       0x12 C:\Users\TURBO9~1\AppData\Local\Temp\arduino_cache_432467\core\core_487b1ced4e7b37e8d402730d0433b7e0.a(adc.c.o)
                0x08001028                adc_set_extsel
 .text.adc_set_sample_rate
                0x0800103a       0x30 C:\Users\TURBO9~1\AppData\Local\Temp\arduino_cache_432467\core\core_487b1ced4e7b37e8d402730d0433b7e0.a(adc.c.o)
                0x0800103a                adc_set_sample_rate
 *fill*         0x0800106a        0x2 
 .text.__irq_adc
                0x0800106c       0x50 C:\Users\TURBO9~1\AppData\Local\Temp\arduino_cache_432467\core\core_487b1ced4e7b37e8d402730d0433b7e0.a(adc_f1.c.o)
                0x0800106c                __irq_adc
 .text.adc_calibrate
                0x080010bc       0x24 C:\Users\TURBO9~1\AppData\Local\Temp\arduino_cache_432467\core\core_487b1ced4e7b37e8d402730d0433b7e0.a(adc_f1.c.o)
                0x080010bc                adc_calibrate
 .text.adc_set_prescaler
                0x080010e0        0x8 C:\Users\TURBO9~1\AppData\Local\Temp\arduino_cache_432467\core\core_487b1ced4e7b37e8d402730d0433b7e0.a(adc_f1.c.o)
                0x080010e0                adc_set_prescaler
 .text.adc_foreach
                0x080010e8       0x1c C:\Users\TURBO9~1\AppData\Local\Temp\arduino_cache_432467\core\core_487b1ced4e7b37e8d402730d0433b7e0.a(adc_f1.c.o)
                0x080010e8                adc_foreach
 .text.adc_enable_single_swstart
                0x08001104       0x36 C:\Users\TURBO9~1\AppData\Local\Temp\arduino_cache_432467\core\core_487b1ced4e7b37e8d402730d0433b7e0.a(adc_f1.c.o)
                0x08001104                adc_enable_single_swstart
 *fill*         0x0800113a        0x2 
 .text.__irq_dma1_channel1
                0x0800113c       0x18 C:\Users\TURBO9~1\AppData\Local\Temp\arduino_cache_432467\core\core_487b1ced4e7b37e8d402730d0433b7e0.a(dma_f1.c.o)
                0x0800113c                __irq_dma1_channel1
 .text.__irq_dma1_channel2
                0x08001154       0x18 C:\Users\TURBO9~1\AppData\Local\Temp\arduino_cache_432467\core\core_487b1ced4e7b37e8d402730d0433b7e0.a(dma_f1.c.o)
                0x08001154                __irq_dma1_channel2
 .text.__irq_dma1_channel3
                0x0800116c       0x1c C:\Users\TURBO9~1\AppData\Local\Temp\arduino_cache_432467\core\core_487b1ced4e7b37e8d402730d0433b7e0.a(dma_f1.c.o)
                0x0800116c                __irq_dma1_channel3
 .text.__irq_dma1_channel4
                0x08001188       0x1c C:\Users\TURBO9~1\AppData\Local\Temp\arduino_cache_432467\core\core_487b1ced4e7b37e8d402730d0433b7e0.a(dma_f1.c.o)
                0x08001188                __irq_dma1_channel4
 .text.__irq_dma1_channel5
                0x080011a4       0x1c C:\Users\TURBO9~1\AppData\Local\Temp\arduino_cache_432467\core\core_487b1ced4e7b37e8d402730d0433b7e0.a(dma_f1.c.o)
                0x080011a4                __irq_dma1_channel5
 .text.__irq_dma1_channel6
                0x080011c0       0x1c C:\Users\TURBO9~1\AppData\Local\Temp\arduino_cache_432467\core\core_487b1ced4e7b37e8d402730d0433b7e0.a(dma_f1.c.o)
                0x080011c0                __irq_dma1_channel6
 .text.__irq_dma1_channel7
                0x080011dc       0x1c C:\Users\TURBO9~1\AppData\Local\Temp\arduino_cache_432467\core\core_487b1ced4e7b37e8d402730d0433b7e0.a(dma_f1.c.o)
                0x080011dc                __irq_dma1_channel7
 *fill*         0x080011f8        0x8 
 .text          0x08001200       0x60 C:\Users\TURBO9~1\AppData\Local\Temp\arduino_cache_432467\core\core_487b1ced4e7b37e8d402730d0433b7e0.a(exc.S.o)
                0x08001200                __exc_nmi
                0x08001204                __exc_hardfault
                0x08001208                __exc_memmanage
                0x0800120c                __exc_busfault
                0x08001210                __exc_usagefault
 .text.exti_attach_callback
                0x08001260       0xac C:\Users\TURBO9~1\AppData\Local\Temp\arduino_cache_432467\core\core_487b1ced4e7b37e8d402730d0433b7e0.a(exti.c.o)
                0x08001260                exti_attach_callback
 .text.exti_attach_interrupt
                0x0800130c       0x10 C:\Users\TURBO9~1\AppData\Local\Temp\arduino_cache_432467\core\core_487b1ced4e7b37e8d402730d0433b7e0.a(exti.c.o)
                0x0800130c                exti_attach_interrupt
 .text.exti_do_select
                0x0800131c       0x1a C:\Users\TURBO9~1\AppData\Local\Temp\arduino_cache_432467\core\core_487b1ced4e7b37e8d402730d0433b7e0.a(exti.c.o)
                0x0800131c                exti_do_select
 *fill*         0x08001336        0x2 
 .text.__irq_exti0
                0x08001338       0x20 C:\Users\TURBO9~1\AppData\Local\Temp\arduino_cache_432467\core\core_487b1ced4e7b37e8d402730d0433b7e0.a(exti.c.o)
                0x08001338                __irq_exti0
 .text.__irq_exti1
                0x08001358       0x20 C:\Users\TURBO9~1\AppData\Local\Temp\arduino_cache_432467\core\core_487b1ced4e7b37e8d402730d0433b7e0.a(exti.c.o)
                0x08001358                __irq_exti1
 .text.__irq_exti2
                0x08001378       0x20 C:\Users\TURBO9~1\AppData\Local\Temp\arduino_cache_432467\core\core_487b1ced4e7b37e8d402730d0433b7e0.a(exti.c.o)
                0x08001378                __irq_exti2
 .text.__irq_exti3
                0x08001398       0x20 C:\Users\TURBO9~1\AppData\Local\Temp\arduino_cache_432467\core\core_487b1ced4e7b37e8d402730d0433b7e0.a(exti.c.o)
                0x08001398                __irq_exti3
 .text.__irq_exti4
                0x080013b8       0x20 C:\Users\TURBO9~1\AppData\Local\Temp\arduino_cache_432467\core\core_487b1ced4e7b37e8d402730d0433b7e0.a(exti.c.o)
                0x080013b8                __irq_exti4
 .text.__irq_exti9_5
                0x080013d8       0x44 C:\Users\TURBO9~1\AppData\Local\Temp\arduino_cache_432467\core\core_487b1ced4e7b37e8d402730d0433b7e0.a(exti.c.o)
                0x080013d8                __irq_exti9_5
 .text.__irq_exti15_10
                0x0800141c       0x44 C:\Users\TURBO9~1\AppData\Local\Temp\arduino_cache_432467\core\core_487b1ced4e7b37e8d402730d0433b7e0.a(exti.c.o)
                0x0800141c                __irq_exti15_10
 .text.exti_select
                0x08001460       0x18 C:\Users\TURBO9~1\AppData\Local\Temp\arduino_cache_432467\core\core_487b1ced4e7b37e8d402730d0433b7e0.a(exti_f1.c.o)
                0x08001460                exti_select
 .text.flash_set_latency
                0x08001478       0x14 C:\Users\TURBO9~1\AppData\Local\Temp\arduino_cache_432467\core\core_487b1ced4e7b37e8d402730d0433b7e0.a(flash.c.o)
                0x08001478                flash_set_latency
 .text.gpio_init_all
                0x0800148c       0x30 C:\Users\TURBO9~1\AppData\Local\Temp\arduino_cache_432467\core\core_487b1ced4e7b37e8d402730d0433b7e0.a(gpio_f1.c.o)
                0x0800148c                gpio_init_all
 .text.gpio_set_mode
                0x080014bc       0x50 C:\Users\TURBO9~1\AppData\Local\Temp\arduino_cache_432467\core\core_487b1ced4e7b37e8d402730d0433b7e0.a(gpio_f1.c.o)
                0x080014bc                gpio_set_mode
 .text.afio_init
                0x0800150c       0x12 C:\Users\TURBO9~1\AppData\Local\Temp\arduino_cache_432467\core\core_487b1ced4e7b37e8d402730d0433b7e0.a(gpio_f1.c.o)
                0x0800150c                afio_init
 *fill*         0x0800151e        0x2 
 .text.__irq_i2c1_ev
                0x08001520        0xc C:\Users\TURBO9~1\AppData\Local\Temp\arduino_cache_432467\core\core_487b1ced4e7b37e8d402730d0433b7e0.a(i2c_f1.c.o)
                0x08001520                __irq_i2c1_ev
 .text.__irq_i2c2_ev
                0x0800152c        0xc C:\Users\TURBO9~1\AppData\Local\Temp\arduino_cache_432467\core\core_487b1ced4e7b37e8d402730d0433b7e0.a(i2c_f1.c.o)
                0x0800152c                __irq_i2c2_ev
 .text.__irq_i2c1_er
                0x08001538        0xc C:\Users\TURBO9~1\AppData\Local\Temp\arduino_cache_432467\core\core_487b1ced4e7b37e8d402730d0433b7e0.a(i2c_f1.c.o)
                0x08001538                __irq_i2c1_er
 .text.__irq_i2c2_er
                0x08001544        0xc C:\Users\TURBO9~1\AppData\Local\Temp\arduino_cache_432467\core\core_487b1ced4e7b37e8d402730d0433b7e0.a(i2c_f1.c.o)
                0x08001544                __irq_i2c2_er
 .text._i2c_irq_priority_fixup
                0x08001550       0x1c C:\Users\TURBO9~1\AppData\Local\Temp\arduino_cache_432467\core\core_487b1ced4e7b37e8d402730d0433b7e0.a(i2c_f1.c.o)
                0x08001550                _i2c_irq_priority_fixup
 .text.nvic_irq_set_priority
                0x0800156c       0x28 C:\Users\TURBO9~1\AppData\Local\Temp\arduino_cache_432467\core\core_487b1ced4e7b37e8d402730d0433b7e0.a(nvic.c.o)
                0x0800156c                nvic_irq_set_priority
 .text.nvic_init
                0x08001594       0x30 C:\Users\TURBO9~1\AppData\Local\Temp\arduino_cache_432467\core\core_487b1ced4e7b37e8d402730d0433b7e0.a(nvic.c.o)
                0x08001594                nvic_init
 .text.nvic_sys_reset
                0x080015c4       0x1c C:\Users\TURBO9~1\AppData\Local\Temp\arduino_cache_432467\core\core_487b1ced4e7b37e8d402730d0433b7e0.a(nvic.c.o)
                0x080015c4                nvic_sys_reset
 .text.rcc_dev_clk
                0x080015e0        0xc C:\Users\TURBO9~1\AppData\Local\Temp\arduino_cache_432467\core\core_487b1ced4e7b37e8d402730d0433b7e0.a(rcc.c.o)
                0x080015e0                rcc_dev_clk
 .text.rcc_switch_sysclk
                0x080015ec       0x20 C:\Users\TURBO9~1\AppData\Local\Temp\arduino_cache_432467\core\core_487b1ced4e7b37e8d402730d0433b7e0.a(rcc.c.o)
                0x080015ec                rcc_switch_sysclk
 .text.rcc_turn_on_clk
                0x0800160c       0x1a C:\Users\TURBO9~1\AppData\Local\Temp\arduino_cache_432467\core\core_487b1ced4e7b37e8d402730d0433b7e0.a(rcc.c.o)
                0x0800160c                rcc_turn_on_clk
 .text.rcc_turn_off_clk
                0x08001626       0x1c C:\Users\TURBO9~1\AppData\Local\Temp\arduino_cache_432467\core\core_487b1ced4e7b37e8d402730d0433b7e0.a(rcc.c.o)
                0x08001626                rcc_turn_off_clk
 .text.rcc_is_clk_ready
                0x08001642       0x18 C:\Users\TURBO9~1\AppData\Local\Temp\arduino_cache_432467\core\core_487b1ced4e7b37e8d402730d0433b7e0.a(rcc.c.o)
                0x08001642                rcc_is_clk_ready
 *fill*         0x0800165a        0x2 
 .text.rcc_configure_pll
                0x0800165c       0x18 C:\Users\TURBO9~1\AppData\Local\Temp\arduino_cache_432467\core\core_487b1ced4e7b37e8d402730d0433b7e0.a(rcc_f1.c.o)
                0x0800165c                rcc_configure_pll
 .text.rcc_clk_enable
                0x08001674       0x30 C:\Users\TURBO9~1\AppData\Local\Temp\arduino_cache_432467\core\core_487b1ced4e7b37e8d402730d0433b7e0.a(rcc_f1.c.o)
                0x08001674                rcc_clk_enable
 .text.rcc_reset_dev
                0x080016a4       0x34 C:\Users\TURBO9~1\AppData\Local\Temp\arduino_cache_432467\core\core_487b1ced4e7b37e8d402730d0433b7e0.a(rcc_f1.c.o)
                0x080016a4                rcc_reset_dev
 .text.rcc_set_prescaler
                0x080016d8       0x20 C:\Users\TURBO9~1\AppData\Local\Temp\arduino_cache_432467\core\core_487b1ced4e7b37e8d402730d0433b7e0.a(rcc_f1.c.o)
                0x080016d8                rcc_set_prescaler
 .text.rcc_clk_disable
                0x080016f8       0x30 C:\Users\TURBO9~1\AppData\Local\Temp\arduino_cache_432467\core\core_487b1ced4e7b37e8d402730d0433b7e0.a(rcc_f1.c.o)
                0x080016f8                rcc_clk_disable
 .text          0x08001728        0x2 C:\Users\TURBO9~1\AppData\Local\Temp\arduino_cache_432467\core\core_487b1ced4e7b37e8d402730d0433b7e0.a(isrs.S.o)
                0x08001728                __stm32reservedexception9
                0x08001728                __exc_debug_monitor
                0x08001728                __exc_svc
                0x08001728                __irq_can_rx1
                0x08001728                __irq_spi2
                0x08001728                __irq_can_sce
                0x08001728                __irq_pvd
                0x08001728                __irq_tamper
                0x08001728                __default_handler
                0x08001728                __irq_wwdg
                0x08001728                __stm32reservedexception10
                0x08001728                __irq_flash
                0x08001728                __stm32reservedexception13
                0x08001728                __irq_rtc
                0x08001728                __irq_spi1
                0x08001728                __stm32reservedexception7
                0x08001728                __irq_usb_hp_can_tx
                0x08001728                __irq_rtcalarm
                0x08001728                __stm32reservedexception8
                0x08001728                __exc_pendsv
                0x08001728                __irq_usbwakeup
                0x08001728                __irq_rcc
 *fill*         0x0800172a        0x2 
 .text.systick_init
                0x0800172c       0x10 C:\Users\TURBO9~1\AppData\Local\Temp\arduino_cache_432467\core\core_487b1ced4e7b37e8d402730d0433b7e0.a(systick.c.o)
                0x0800172c                systick_init
 .text.__exc_systick
                0x0800173c       0x1c C:\Users\TURBO9~1\AppData\Local\Temp\arduino_cache_432467\core\core_487b1ced4e7b37e8d402730d0433b7e0.a(systick.c.o)
                0x0800173c                __exc_systick
 .text.timer_foreach
                0x08001758       0x28 C:\Users\TURBO9~1\AppData\Local\Temp\arduino_cache_432467\core\core_487b1ced4e7b37e8d402730d0433b7e0.a(timer.c.o)
                0x08001758                timer_foreach
 .text.timer_init
                0x08001780       0x14 C:\Users\TURBO9~1\AppData\Local\Temp\arduino_cache_432467\core\core_487b1ced4e7b37e8d402730d0433b7e0.a(timer.c.o)
                0x08001780                timer_init
 .text.timer_has_cc_channel
                0x08001794       0x30 C:\Users\TURBO9~1\AppData\Local\Temp\arduino_cache_432467\core\core_487b1ced4e7b37e8d402730d0433b7e0.a(timer.c.o)
                0x08001794                timer_has_cc_channel
 .text.__irq_tim1_brk
                0x080017c4       0x24 C:\Users\TURBO9~1\AppData\Local\Temp\arduino_cache_432467\core\core_487b1ced4e7b37e8d402730d0433b7e0.a(timer.c.o)
                0x080017c4                __irq_tim1_brk
 .text.__irq_tim1_up
                0x080017e8       0x24 C:\Users\TURBO9~1\AppData\Local\Temp\arduino_cache_432467\core\core_487b1ced4e7b37e8d402730d0433b7e0.a(timer.c.o)
                0x080017e8                __irq_tim1_up
 .text.__irq_tim1_trg_com
                0x0800180c       0x38 C:\Users\TURBO9~1\AppData\Local\Temp\arduino_cache_432467\core\core_487b1ced4e7b37e8d402730d0433b7e0.a(timer.c.o)
                0x0800180c                __irq_tim1_trg_com
 .text.__irq_tim1_cc
                0x08001844       0x54 C:\Users\TURBO9~1\AppData\Local\Temp\arduino_cache_432467\core\core_487b1ced4e7b37e8d402730d0433b7e0.a(timer.c.o)
                0x08001844                __irq_tim1_cc
 .text.__irq_tim2
                0x08001898       0x70 C:\Users\TURBO9~1\AppData\Local\Temp\arduino_cache_432467\core\core_487b1ced4e7b37e8d402730d0433b7e0.a(timer.c.o)
                0x08001898                __irq_tim2
 .text.__irq_tim3
                0x08001908       0x70 C:\Users\TURBO9~1\AppData\Local\Temp\arduino_cache_432467\core\core_487b1ced4e7b37e8d402730d0433b7e0.a(timer.c.o)
                0x08001908                __irq_tim3
 .text.__irq_tim4
                0x08001978       0x70 C:\Users\TURBO9~1\AppData\Local\Temp\arduino_cache_432467\core\core_487b1ced4e7b37e8d402730d0433b7e0.a(timer.c.o)
                0x08001978                __irq_tim4
 .text.usart_tx
                0x080019e8       0x9c C:\Users\TURBO9~1\AppData\Local\Temp\arduino_cache_432467\core\core_487b1ced4e7b37e8d402730d0433b7e0.a(usart.c.o)
                0x080019e8                usart_tx
 .text.rb_remove
                0x08001a84       0x24 C:\Users\TURBO9~1\AppData\Local\Temp\arduino_cache_432467\core\core_487b1ced4e7b37e8d402730d0433b7e0.a(usart_f1.c.o)
 .text.rb_push_insert
                0x08001aa8       0x52 C:\Users\TURBO9~1\AppData\Local\Temp\arduino_cache_432467\core\core_487b1ced4e7b37e8d402730d0433b7e0.a(usart_f1.c.o)
 *fill*         0x08001afa        0x2 
 .text.__irq_usart1
                0x08001afc       0x54 C:\Users\TURBO9~1\AppData\Local\Temp\arduino_cache_432467\core\core_487b1ced4e7b37e8d402730d0433b7e0.a(usart_f1.c.o)
                0x08001afc                __irq_usart1
 .text.__irq_usart2
                0x08001b50       0x54 C:\Users\TURBO9~1\AppData\Local\Temp\arduino_cache_432467\core\core_487b1ced4e7b37e8d402730d0433b7e0.a(usart_f1.c.o)
                0x08001b50                __irq_usart2
 .text.__irq_usart3
                0x08001ba4       0x54 C:\Users\TURBO9~1\AppData\Local\Temp\arduino_cache_432467\core\core_487b1ced4e7b37e8d402730d0433b7e0.a(usart_f1.c.o)
                0x08001ba4                __irq_usart3
 .text.usb_resume
                0x08001bf8       0xb4 C:\Users\TURBO9~1\AppData\Local\Temp\arduino_cache_432467\core\core_487b1ced4e7b37e8d402730d0433b7e0.a(usb.c.o)
 .text.usb_init_usblib
                0x08001cac       0x48 C:\Users\TURBO9~1\AppData\Local\Temp\arduino_cache_432467\core\core_487b1ced4e7b37e8d402730d0433b7e0.a(usb.c.o)
                0x08001cac                usb_init_usblib
 .text.__irq_usb_lp_can_rx0
                0x08001cf4      0x1c8 C:\Users\TURBO9~1\AppData\Local\Temp\arduino_cache_432467\core\core_487b1ced4e7b37e8d402730d0433b7e0.a(usb.c.o)
                0x08001cf4                __irq_usb_lp_can_rx0
 .text.usb_set_ep_rx_stat
                0x08001ebc       0x22 C:\Users\TURBO9~1\AppData\Local\Temp\arduino_cache_432467\core\core_487b1ced4e7b37e8d402730d0433b7e0.a(usb_cdcacm.c.o)
 *fill*         0x08001ede        0x2 
 .text.vcomGetSetLineCoding
                0x08001ee0       0x18 C:\Users\TURBO9~1\AppData\Local\Temp\arduino_cache_432467\core\core_487b1ced4e7b37e8d402730d0433b7e0.a(usb_cdcacm.c.o)
 .text.usbDataSetup
                0x08001ef8       0x54 C:\Users\TURBO9~1\AppData\Local\Temp\arduino_cache_432467\core\core_487b1ced4e7b37e8d402730d0433b7e0.a(usb_cdcacm.c.o)
 .text.usbNoDataSetup
                0x08001f4c       0x50 C:\Users\TURBO9~1\AppData\Local\Temp\arduino_cache_432467\core\core_487b1ced4e7b37e8d402730d0433b7e0.a(usb_cdcacm.c.o)
 .text.usbGetInterfaceSetting
                0x08001f9c       0x10 C:\Users\TURBO9~1\AppData\Local\Temp\arduino_cache_432467\core\core_487b1ced4e7b37e8d402730d0433b7e0.a(usb_cdcacm.c.o)
 .text.usbSetConfiguration
                0x08001fac       0x1c C:\Users\TURBO9~1\AppData\Local\Temp\arduino_cache_432467\core\core_487b1ced4e7b37e8d402730d0433b7e0.a(usb_cdcacm.c.o)
 .text.usbSetDeviceAddress
                0x08001fc8       0x10 C:\Users\TURBO9~1\AppData\Local\Temp\arduino_cache_432467\core\core_487b1ced4e7b37e8d402730d0433b7e0.a(usb_cdcacm.c.o)
 .text.usbGetStringDescriptor
                0x08001fd8       0x20 C:\Users\TURBO9~1\AppData\Local\Temp\arduino_cache_432467\core\core_487b1ced4e7b37e8d402730d0433b7e0.a(usb_cdcacm.c.o)
 .text.usbGetConfigDescriptor
                0x08001ff8        0xc C:\Users\TURBO9~1\AppData\Local\Temp\arduino_cache_432467\core\core_487b1ced4e7b37e8d402730d0433b7e0.a(usb_cdcacm.c.o)
 .text.usbGetDeviceDescriptor
                0x08002004        0xc C:\Users\TURBO9~1\AppData\Local\Temp\arduino_cache_432467\core\core_487b1ced4e7b37e8d402730d0433b7e0.a(usb_cdcacm.c.o)
 .text.usbInit  0x08002010       0x44 C:\Users\TURBO9~1\AppData\Local\Temp\arduino_cache_432467\core\core_487b1ced4e7b37e8d402730d0433b7e0.a(usb_cdcacm.c.o)
 .text.vcomDataTxCb
                0x08002054       0xa0 C:\Users\TURBO9~1\AppData\Local\Temp\arduino_cache_432467\core\core_487b1ced4e7b37e8d402730d0433b7e0.a(usb_cdcacm.c.o)
 .text.usbReset
                0x080020f4      0x160 C:\Users\TURBO9~1\AppData\Local\Temp\arduino_cache_432467\core\core_487b1ced4e7b37e8d402730d0433b7e0.a(usb_cdcacm.c.o)
 .text.vcomDataRxCb
                0x08002254       0x7c C:\Users\TURBO9~1\AppData\Local\Temp\arduino_cache_432467\core\core_487b1ced4e7b37e8d402730d0433b7e0.a(usb_cdcacm.c.o)
 .text.usb_cdcacm_set_hooks
                0x080022d0       0x1c C:\Users\TURBO9~1\AppData\Local\Temp\arduino_cache_432467\core\core_487b1ced4e7b37e8d402730d0433b7e0.a(usb_cdcacm.c.o)
                0x080022d0                usb_cdcacm_set_hooks
 .text.usb_cdcacm_enable
                0x080022ec       0x38 C:\Users\TURBO9~1\AppData\Local\Temp\arduino_cache_432467\core\core_487b1ced4e7b37e8d402730d0433b7e0.a(usb_cdcacm.c.o)
                0x080022ec                usb_cdcacm_enable
 .text.usb_cdcacm_tx
                0x08002324       0x60 C:\Users\TURBO9~1\AppData\Local\Temp\arduino_cache_432467\core\core_487b1ced4e7b37e8d402730d0433b7e0.a(usb_cdcacm.c.o)
                0x08002324                usb_cdcacm_tx
 .text.usb_cdcacm_data_available
                0x08002384       0x18 C:\Users\TURBO9~1\AppData\Local\Temp\arduino_cache_432467\core\core_487b1ced4e7b37e8d402730d0433b7e0.a(usb_cdcacm.c.o)
                0x08002384                usb_cdcacm_data_available
 .text.usb_cdcacm_peek
                0x0800239c       0x38 C:\Users\TURBO9~1\AppData\Local\Temp\arduino_cache_432467\core\core_487b1ced4e7b37e8d402730d0433b7e0.a(usb_cdcacm.c.o)
                0x0800239c                usb_cdcacm_peek
 .text.usb_cdcacm_rx
                0x080023d4       0x34 C:\Users\TURBO9~1\AppData\Local\Temp\arduino_cache_432467\core\core_487b1ced4e7b37e8d402730d0433b7e0.a(usb_cdcacm.c.o)
                0x080023d4                usb_cdcacm_rx
 .text.usb_cdcacm_peek_ex
                0x08002408       0x40 C:\Users\TURBO9~1\AppData\Local\Temp\arduino_cache_432467\core\core_487b1ced4e7b37e8d402730d0433b7e0.a(usb_cdcacm.c.o)
                0x08002408                usb_cdcacm_peek_ex
 .text.usb_cdcacm_get_dtr
                0x08002448       0x10 C:\Users\TURBO9~1\AppData\Local\Temp\arduino_cache_432467\core\core_487b1ced4e7b37e8d402730d0433b7e0.a(usb_cdcacm.c.o)
                0x08002448                usb_cdcacm_get_dtr
 .text.usb_set_ep_rx_count
                0x08002458       0x40 C:\Users\TURBO9~1\AppData\Local\Temp\arduino_cache_432467\core\core_487b1ced4e7b37e8d402730d0433b7e0.a(usb_reg_map.c.o)
                0x08002458                usb_set_ep_rx_count
 .text.Standard_GetConfiguration
                0x08002498       0x24 C:\Users\TURBO9~1\AppData\Local\Temp\arduino_cache_432467\core\core_487b1ced4e7b37e8d402730d0433b7e0.a(usb_core.c.o)
                0x08002498                Standard_GetConfiguration
 .text.Standard_GetInterface
                0x080024bc       0x24 C:\Users\TURBO9~1\AppData\Local\Temp\arduino_cache_432467\core\core_487b1ced4e7b37e8d402730d0433b7e0.a(usb_core.c.o)
                0x080024bc                Standard_GetInterface
 .text.Standard_GetStatus
                0x080024e0       0x90 C:\Users\TURBO9~1\AppData\Local\Temp\arduino_cache_432467\core\core_487b1ced4e7b37e8d402730d0433b7e0.a(usb_core.c.o)
                0x080024e0                Standard_GetStatus
 .text.DataStageIn
                0x08002570       0xa8 C:\Users\TURBO9~1\AppData\Local\Temp\arduino_cache_432467\core\core_487b1ced4e7b37e8d402730d0433b7e0.a(usb_core.c.o)
 .text.Standard_SetConfiguration
                0x08002618       0x38 C:\Users\TURBO9~1\AppData\Local\Temp\arduino_cache_432467\core\core_487b1ced4e7b37e8d402730d0433b7e0.a(usb_core.c.o)
                0x08002618                Standard_SetConfiguration
 .text.Standard_SetInterface
                0x08002650       0x48 C:\Users\TURBO9~1\AppData\Local\Temp\arduino_cache_432467\core\core_487b1ced4e7b37e8d402730d0433b7e0.a(usb_core.c.o)
                0x08002650                Standard_SetInterface
 .text.Standard_ClearFeature
                0x08002698       0xd0 C:\Users\TURBO9~1\AppData\Local\Temp\arduino_cache_432467\core\core_487b1ced4e7b37e8d402730d0433b7e0.a(usb_core.c.o)
                0x08002698                Standard_ClearFeature
 .text.Standard_SetEndPointFeature
                0x08002768       0x84 C:\Users\TURBO9~1\AppData\Local\Temp\arduino_cache_432467\core\core_487b1ced4e7b37e8d402730d0433b7e0.a(usb_core.c.o)
                0x08002768                Standard_SetEndPointFeature
 .text.Standard_SetDeviceFeature
                0x080027ec       0x24 C:\Users\TURBO9~1\AppData\Local\Temp\arduino_cache_432467\core\core_487b1ced4e7b37e8d402730d0433b7e0.a(usb_core.c.o)
                0x080027ec                Standard_SetDeviceFeature
 .text.Standard_GetDescriptorData
                0x08002810       0x1c C:\Users\TURBO9~1\AppData\Local\Temp\arduino_cache_432467\core\core_487b1ced4e7b37e8d402730d0433b7e0.a(usb_core.c.o)
                0x08002810                Standard_GetDescriptorData
 .text.Post0_Process
                0x0800282c       0x40 C:\Users\TURBO9~1\AppData\Local\Temp\arduino_cache_432467\core\core_487b1ced4e7b37e8d402730d0433b7e0.a(usb_core.c.o)
                0x0800282c                Post0_Process
 .text.Setup0_Process
                0x0800286c      0x2d0 C:\Users\TURBO9~1\AppData\Local\Temp\arduino_cache_432467\core\core_487b1ced4e7b37e8d402730d0433b7e0.a(usb_core.c.o)
                0x0800286c                Setup0_Process
 .text.Out0_Process
                0x08002b3c       0xc8 C:\Users\TURBO9~1\AppData\Local\Temp\arduino_cache_432467\core\core_487b1ced4e7b37e8d402730d0433b7e0.a(usb_core.c.o)
                0x08002b3c                Out0_Process
 .text.SetDeviceAddress
                0x08002c04       0x38 C:\Users\TURBO9~1\AppData\Local\Temp\arduino_cache_432467\core\core_487b1ced4e7b37e8d402730d0433b7e0.a(usb_core.c.o)
                0x08002c04                SetDeviceAddress
 .text.In0_Process
                0x08002c3c       0x5c C:\Users\TURBO9~1\AppData\Local\Temp\arduino_cache_432467\core\core_487b1ced4e7b37e8d402730d0433b7e0.a(usb_core.c.o)
                0x08002c3c                In0_Process
 .text.NOP_Process
                0x08002c98        0x2 C:\Users\TURBO9~1\AppData\Local\Temp\arduino_cache_432467\core\core_487b1ced4e7b37e8d402730d0433b7e0.a(usb_core.c.o)
                0x08002c98                NOP_Process
 .text.UserToPMABufferCopy
                0x08002c9a       0x30 C:\Users\TURBO9~1\AppData\Local\Temp\arduino_cache_432467\core\core_487b1ced4e7b37e8d402730d0433b7e0.a(usb_mem.c.o)
                0x08002c9a                UserToPMABufferCopy
 .text.PMAToUserBufferCopy
                0x08002cca       0x24 C:\Users\TURBO9~1\AppData\Local\Temp\arduino_cache_432467\core\core_487b1ced4e7b37e8d402730d0433b7e0.a(usb_mem.c.o)
                0x08002cca                PMAToUserBufferCopy
 .text.SetEPTxStatus
                0x08002cee       0x2a C:\Users\TURBO9~1\AppData\Local\Temp\arduino_cache_432467\core\core_487b1ced4e7b37e8d402730d0433b7e0.a(usb_regs.c.o)
                0x08002cee                SetEPTxStatus
 .text.ClearDTOG_RX
                0x08002d18       0x20 C:\Users\TURBO9~1\AppData\Local\Temp\arduino_cache_432467\core\core_487b1ced4e7b37e8d402730d0433b7e0.a(usb_regs.c.o)
                0x08002d18                ClearDTOG_RX
 .text.ClearDTOG_TX
                0x08002d38       0x20 C:\Users\TURBO9~1\AppData\Local\Temp\arduino_cache_432467\core\core_487b1ced4e7b37e8d402730d0433b7e0.a(usb_regs.c.o)
                0x08002d38                ClearDTOG_TX
 .text.GetEPTxAddr
                0x08002d58       0x1c C:\Users\TURBO9~1\AppData\Local\Temp\arduino_cache_432467\core\core_487b1ced4e7b37e8d402730d0433b7e0.a(usb_regs.c.o)
                0x08002d58                GetEPTxAddr
 .text.GetEPRxAddr
                0x08002d74       0x1c C:\Users\TURBO9~1\AppData\Local\Temp\arduino_cache_432467\core\core_487b1ced4e7b37e8d402730d0433b7e0.a(usb_regs.c.o)
                0x08002d74                GetEPRxAddr
 .text.SetEPTxCount
                0x08002d90       0x1c C:\Users\TURBO9~1\AppData\Local\Temp\arduino_cache_432467\core\core_487b1ced4e7b37e8d402730d0433b7e0.a(usb_regs.c.o)
                0x08002d90                SetEPTxCount
 .text.SetEPRxCount
                0x08002dac       0x40 C:\Users\TURBO9~1\AppData\Local\Temp\arduino_cache_432467\core\core_487b1ced4e7b37e8d402730d0433b7e0.a(usb_regs.c.o)
                0x08002dac                SetEPRxCount
 .text.throb    0x08002dec       0x4c C:\Users\TURBO9~1\AppData\Local\Temp\arduino_cache_432467\core\core_487b1ced4e7b37e8d402730d0433b7e0.a(util.c.o)
                0x08002dec                throb
 .text.__error  0x08002e38       0x14 C:\Users\TURBO9~1\AppData\Local\Temp\arduino_cache_432467\core\core_487b1ced4e7b37e8d402730d0433b7e0.a(util.c.o)
                0x08002e38                __error
 .text.startup._Z7premainv
                0x08002e4c        0x4 C:\Users\TURBO9~1\AppData\Local\Temp\arduino_cache_432467\core\core_487b1ced4e7b37e8d402730d0433b7e0.a(main.cpp.o)
                0x08002e4c                premain()
 .text.startup.main
                0x08002e50        0xc C:\Users\TURBO9~1\AppData\Local\Temp\arduino_cache_432467\core\core_487b1ced4e7b37e8d402730d0433b7e0.a(main.cpp.o)
                0x08002e50                main
 .text._ZN9USBSerial9availableEv
                0x08002e5c        0x4 C:\Users\TURBO9~1\AppData\Local\Temp\arduino_cache_432467\core\core_487b1ced4e7b37e8d402730d0433b7e0.a(usb_serial.cpp.o)
                0x08002e5c                USBSerial::available()
 .text._ZN9USBSerial4peekEv
                0x08002e60       0x1e C:\Users\TURBO9~1\AppData\Local\Temp\arduino_cache_432467\core\core_487b1ced4e7b37e8d402730d0433b7e0.a(usb_serial.cpp.o)
                0x08002e60                USBSerial::peek()
 .text._ZN9USBSerial4readEv
                0x08002e7e       0x1e C:\Users\TURBO9~1\AppData\Local\Temp\arduino_cache_432467\core\core_487b1ced4e7b37e8d402730d0433b7e0.a(usb_serial.cpp.o)
                0x08002e7e                USBSerial::read()
 .text._ZL14ifaceSetupHookjPv
                0x08002e9c       0x38 C:\Users\TURBO9~1\AppData\Local\Temp\arduino_cache_432467\core\core_487b1ced4e7b37e8d402730d0433b7e0.a(usb_serial.cpp.o)
 .text._ZL6rxHookjPv
                0x08002ed4       0xa0 C:\Users\TURBO9~1\AppData\Local\Temp\arduino_cache_432467\core\core_487b1ced4e7b37e8d402730d0433b7e0.a(usb_serial.cpp.o)
 .text._ZL10wait_resetv
                0x08002f74       0x10 C:\Users\TURBO9~1\AppData\Local\Temp\arduino_cache_432467\core\core_487b1ced4e7b37e8d402730d0433b7e0.a(usb_serial.cpp.o)
 .text._ZN9USBSerialC2Ev
                0x08002f84       0x14 C:\Users\TURBO9~1\AppData\Local\Temp\arduino_cache_432467\core\core_487b1ced4e7b37e8d402730d0433b7e0.a(usb_serial.cpp.o)
                0x08002f84                USBSerial::USBSerial()
                0x08002f84                USBSerial::USBSerial()
 .text._ZN9USBSerial5beginEv
                0x08002f98       0x34 C:\Users\TURBO9~1\AppData\Local\Temp\arduino_cache_432467\core\core_487b1ced4e7b37e8d402730d0433b7e0.a(usb_serial.cpp.o)
                0x08002f98                USBSerial::begin()
 .text._ZN9USBSerial5writeEPKhm
                0x08002fcc       0x2c C:\Users\TURBO9~1\AppData\Local\Temp\arduino_cache_432467\core\core_487b1ced4e7b37e8d402730d0433b7e0.a(usb_serial.cpp.o)
                0x08002fcc                USBSerial::write(unsigned char const*, unsigned long)
 .text._ZN9USBSerial5writeEh
                0x08002ff8       0x18 C:\Users\TURBO9~1\AppData\Local\Temp\arduino_cache_432467\core\core_487b1ced4e7b37e8d402730d0433b7e0.a(usb_serial.cpp.o)
                0x08002ff8                USBSerial::write(unsigned char)
 .text._ZN9USBSerial5writeEPKc
                0x08003010       0x1a C:\Users\TURBO9~1\AppData\Local\Temp\arduino_cache_432467\core\core_487b1ced4e7b37e8d402730d0433b7e0.a(usb_serial.cpp.o)
                0x08003010                USBSerial::write(char const*)
 .text._ZN9USBSerial4readEPhm
                0x0800302a       0x1c C:\Users\TURBO9~1\AppData\Local\Temp\arduino_cache_432467\core\core_487b1ced4e7b37e8d402730d0433b7e0.a(usb_serial.cpp.o)
                0x0800302a                USBSerial::read(unsigned char*, unsigned long)
 .text._ZN9USBSerial5flushEv
                0x08003046       0x1c C:\Users\TURBO9~1\AppData\Local\Temp\arduino_cache_432467\core\core_487b1ced4e7b37e8d402730d0433b7e0.a(usb_serial.cpp.o)
                0x08003046                USBSerial::flush()
 *fill*         0x08003062        0x2 
 .text.startup._GLOBAL__sub_I__ZN9USBSerial9_hasBegunE
                0x08003064        0xc C:\Users\TURBO9~1\AppData\Local\Temp\arduino_cache_432467\core\core_487b1ced4e7b37e8d402730d0433b7e0.a(usb_serial.cpp.o)
 .text._Z17delayMicrosecondsm
                0x08003070       0x10 C:\Users\TURBO9~1\AppData\Local\Temp\arduino_cache_432467\core\core_487b1ced4e7b37e8d402730d0433b7e0.a(wirish_time.cpp.o)
                0x08003070                delayMicroseconds(unsigned long)
 .text.bkp_init
                0x08003080       0x18 C:\Users\TURBO9~1\AppData\Local\Temp\arduino_cache_432467\core\core_487b1ced4e7b37e8d402730d0433b7e0.a(bkp_f1.c.o)
                0x08003080                bkp_init
 .text.bkp_enable_writes
                0x08003098        0xc C:\Users\TURBO9~1\AppData\Local\Temp\arduino_cache_432467\core\core_487b1ced4e7b37e8d402730d0433b7e0.a(bkp_f1.c.o)
                0x08003098                bkp_enable_writes
 .text.bkp_disable_writes
                0x080030a4        0xc C:\Users\TURBO9~1\AppData\Local\Temp\arduino_cache_432467\core\core_487b1ced4e7b37e8d402730d0433b7e0.a(bkp_f1.c.o)
                0x080030a4                bkp_disable_writes
 .text.bkp_write
                0x080030b0       0x16 C:\Users\TURBO9~1\AppData\Local\Temp\arduino_cache_432467\core\core_487b1ced4e7b37e8d402730d0433b7e0.a(bkp_f1.c.o)
                0x080030b0                bkp_write
 .text.gpio_init
                0x080030c6       0x14 C:\Users\TURBO9~1\AppData\Local\Temp\arduino_cache_432467\core\core_487b1ced4e7b37e8d402730d0433b7e0.a(gpio.c.o)
                0x080030c6                gpio_init
 .text.i2c_start_condition
                0x080030da       0x14 C:\Users\TURBO9~1\AppData\Local\Temp\arduino_cache_432467\core\core_487b1ced4e7b37e8d402730d0433b7e0.a(i2c.c.o)
 .text.i2c_stop_condition
                0x080030ee       0x1c C:\Users\TURBO9~1\AppData\Local\Temp\arduino_cache_432467\core\core_487b1ced4e7b37e8d402730d0433b7e0.a(i2c.c.o)
 *fill*         0x0800310a        0x2 
 .text._i2c_irq_handler
                0x0800310c      0x16c C:\Users\TURBO9~1\AppData\Local\Temp\arduino_cache_432467\core\core_487b1ced4e7b37e8d402730d0433b7e0.a(i2c.c.o)
                0x0800310c                _i2c_irq_handler
 .text._i2c_irq_error_handler
                0x08003278       0x2a C:\Users\TURBO9~1\AppData\Local\Temp\arduino_cache_432467\core\core_487b1ced4e7b37e8d402730d0433b7e0.a(i2c.c.o)
                0x08003278                _i2c_irq_error_handler
 *fill*         0x080032a2        0x2 
 .text.exit     0x080032a4       0x20 c:/users/turbo9000/appdata/local/arduino15/packages/arduino/tools/arm-none-eabi-gcc/4.8.3-2014q1/bin/../lib/gcc/arm-none-eabi/4.8.3/../../../../arm-none-eabi/lib/armv7-m\libc.a(lib_a-exit.o)
                0x080032a4                exit
 .text.__libc_init_array
                0x080032c4       0x50 c:/users/turbo9000/appdata/local/arduino15/packages/arduino/tools/arm-none-eabi-gcc/4.8.3-2014q1/bin/../lib/gcc/arm-none-eabi/4.8.3/../../../../arm-none-eabi/lib/armv7-m\libc.a(lib_a-init.o)
                0x080032c4                __libc_init_array
 .text.strlen   0x08003314       0x60 c:/users/turbo9000/appdata/local/arduino15/packages/arduino/tools/arm-none-eabi-gcc/4.8.3-2014q1/bin/../lib/gcc/arm-none-eabi/4.8.3/../../../../arm-none-eabi/lib/armv7-m\libc.a(lib_a-strlen.o)
                0x08003314                strlen
 .text.startup.register_fini
                0x08003374       0x14 c:/users/turbo9000/appdata/local/arduino15/packages/arduino/tools/arm-none-eabi-gcc/4.8.3-2014q1/bin/../lib/gcc/arm-none-eabi/4.8.3/../../../../arm-none-eabi/lib/armv7-m\libc.a(lib_a-__call_atexit.o)
 .text.__call_exitprocs
                0x08003388       0xf0 c:/users/turbo9000/appdata/local/arduino15/packages/arduino/tools/arm-none-eabi-gcc/4.8.3-2014q1/bin/../lib/gcc/arm-none-eabi/4.8.3/../../../../arm-none-eabi/lib/armv7-m\libc.a(lib_a-__call_atexit.o)
                0x08003388                __call_exitprocs
 .text.atexit   0x08003478        0xc c:/users/turbo9000/appdata/local/arduino15/packages/arduino/tools/arm-none-eabi-gcc/4.8.3-2014q1/bin/../lib/gcc/arm-none-eabi/4.8.3/../../../../arm-none-eabi/lib/armv7-m\libc.a(lib_a-atexit.o)
                0x08003478                atexit
 .text.__libc_fini_array
                0x08003484       0x30 c:/users/turbo9000/appdata/local/arduino15/packages/arduino/tools/arm-none-eabi-gcc/4.8.3-2014q1/bin/../lib/gcc/arm-none-eabi/4.8.3/../../../../arm-none-eabi/lib/armv7-m\libc.a(lib_a-fini.o)
                0x08003484                __libc_fini_array
 .text.__register_exitproc
                0x080034b4       0xa8 c:/users/turbo9000/appdata/local/arduino15/packages/arduino/tools/arm-none-eabi-gcc/4.8.3-2014q1/bin/../lib/gcc/arm-none-eabi/4.8.3/../../../../arm-none-eabi/lib/armv7-m\libc.a(lib_a-__atexit.o)
                0x080034b4                __register_exitproc
 *(.plt)
 *(.gnu.warning)
 *(.glue_7t)
 .glue_7t       0x00000000        0x0 linker stubs
 *(.glue_7)
 .glue_7        0x00000000        0x0 linker stubs
 *(.vfp11_veneer)
 .vfp11_veneer  0x00000000        0x0 linker stubs
 *(.ARM.extab* .gnu.linkonce.armextab.*)
 *(.gcc_except_table)
 *(.eh_frame_hdr)
 *(.eh_frame)
 .eh_frame      0x0800355c        0x0 c:/users/turbo9000/appdata/local/arduino15/packages/arduino/tools/arm-none-eabi-gcc/4.8.3-2014q1/bin/../lib/gcc/arm-none-eabi/4.8.3/armv7-m/crtbegin.o
                0x0800355c                . = ALIGN (0x4)
 *(.init)
 .init          0x0800355c        0x4 c:/users/turbo9000/appdata/local/arduino15/packages/arduino/tools/arm-none-eabi-gcc/4.8.3-2014q1/bin/../lib/gcc/arm-none-eabi/4.8.3/armv7-m/crti.o
                0x0800355c                _init
 .init          0x08003560        0x8 c:/users/turbo9000/appdata/local/arduino15/packages/arduino/tools/arm-none-eabi-gcc/4.8.3-2014q1/bin/../lib/gcc/arm-none-eabi/4.8.3/armv7-m/crtn.o
                0x08003568                . = ALIGN (0x4)
                0x08003568                __preinit_array_start = .
 *(.preinit_array)
                0x08003568                __preinit_array_end = .
                0x08003568                . = ALIGN (0x4)
                0x08003568                __init_array_start = .
 *(SORT(.init_array.*))
 .init_array.00000
                0x08003568        0x4 c:/users/turbo9000/appdata/local/arduino15/packages/arduino/tools/arm-none-eabi-gcc/4.8.3-2014q1/bin/../lib/gcc/arm-none-eabi/4.8.3/../../../../arm-none-eabi/lib/armv7-m\libc.a(lib_a-__call_atexit.o)
 .init_array.00101
                0x0800356c        0x4 C:\Users\TURBO9~1\AppData\Local\Temp\arduino_cache_432467\core\core_487b1ced4e7b37e8d402730d0433b7e0.a(main.cpp.o)
 *(.init_array)
 .init_array    0x08003570        0x4 c:/users/turbo9000/appdata/local/arduino15/packages/arduino/tools/arm-none-eabi-gcc/4.8.3-2014q1/bin/../lib/gcc/arm-none-eabi/4.8.3/armv7-m/crtbegin.o
 .init_array    0x08003574        0x4 C:\Users\TURBO9~1\AppData\Local\Temp\arduino_build_805463\core\board.cpp.o
 .init_array    0x08003578        0x4 C:\Users\TURBO9~1\AppData\Local\Temp\arduino_cache_432467\core\core_487b1ced4e7b37e8d402730d0433b7e0.a(usb_serial.cpp.o)
                0x0800357c                __init_array_end = .
                0x0800357c                . = ALIGN (0x4)
 *crtbegin.o(.ctors)
 *(EXCLUDE_FILE(*crtend.o) .ctors)
 *(SORT(.ctors.*))
 *crtend.o(.ctors)
                0x0800357c                . = ALIGN (0x4)
 *(.fini)
 .fini          0x0800357c        0x4 c:/users/turbo9000/appdata/local/arduino15/packages/arduino/tools/arm-none-eabi-gcc/4.8.3-2014q1/bin/../lib/gcc/arm-none-eabi/4.8.3/armv7-m/crti.o
                0x0800357c                _fini
 .fini          0x08003580        0x8 c:/users/turbo9000/appdata/local/arduino15/packages/arduino/tools/arm-none-eabi-gcc/4.8.3-2014q1/bin/../lib/gcc/arm-none-eabi/4.8.3/armv7-m/crtn.o
                0x08003588                . = ALIGN (0x4)
                0x08003588                __fini_array_start = .
 *(.fini_array)
 .fini_array    0x08003588        0x4 c:/users/turbo9000/appdata/local/arduino15/packages/arduino/tools/arm-none-eabi-gcc/4.8.3-2014q1/bin/../lib/gcc/arm-none-eabi/4.8.3/armv7-m/crtbegin.o
 *(SORT(.fini_array.*))
                0x0800358c                __fini_array_end = .
 *crtbegin.o(.dtors)
 *(EXCLUDE_FILE(*crtend.o) .dtors)
 *(SORT(.dtors.*))
 *crtend.o(.dtors)

.v4_bx          0x0800358c        0x0
 .v4_bx         0x00000000        0x0 linker stubs

.iplt           0x0800358c        0x0
 .iplt          0x00000000        0x0 c:/users/turbo9000/appdata/local/arduino15/packages/arduino/tools/arm-none-eabi-gcc/4.8.3-2014q1/bin/../lib/gcc/arm-none-eabi/4.8.3/armv7-m/crtbegin.o

.text.align     0x0800358c        0x4
                0x08003590                . = ALIGN (0x8)
 *fill*         0x0800358c        0x4 
                0x08003590                __text_end__ = .
                0x08003590                __exidx_start = .

.ARM.exidx      0x08003590        0x8
 *(.ARM.exidx* .gnu.linkonce.armexidx.*)
 .ARM.exidx     0x08003590        0x8 C:\Users\TURBO9~1\AppData\Local\Temp\arduino_build_805463\core\wirish\start.S.o
                0x08003598                __exidx_end = .

.data           0x20000000      0x868 load address 0x08003598
                0x20000000                __data_start__ = .
                0x20000000        0x4 LONG 0x0
                0x20000008                . = ALIGN (0x8)
 *fill*         0x20000004        0x4 
 *(.got.plt)
 *(.got)
 *(.data .data.* .gnu.linkonce.d.*)
 .data.TypematicStatusByte
                0x20000008        0x4 C:\Users\TURBO9~1\AppData\Local\Temp\arduino_build_805463\sketch\blue_pill_keyboard.ino.cpp.o
                0x20000008                TypematicStatusByte
 .data._ZN6wirish4privL8pll_dataE
                0x2000000c        0x4 C:\Users\TURBO9~1\AppData\Local\Temp\arduino_build_805463\core\wirish\boards_setup.cpp.o
 .data._ZN6wirish4priv9w_adc_smpE
                0x20000010        0x1 C:\Users\TURBO9~1\AppData\Local\Temp\arduino_build_805463\core\wirish\boards_setup.cpp.o
                0x20000010                wirish::priv::w_adc_smp
 *fill*         0x20000011        0x1 
 .data._ZN6wirish4priv9w_adc_preE
                0x20000012        0x2 C:\Users\TURBO9~1\AppData\Local\Temp\arduino_build_805463\core\wirish\boards_setup.cpp.o
                0x20000012                wirish::priv::w_adc_pre
 .data._ZN6wirish4priv15w_board_pll_cfgE
                0x20000014        0x8 C:\Users\TURBO9~1\AppData\Local\Temp\arduino_build_805463\core\wirish\boards_setup.cpp.o
                0x20000014                wirish::priv::w_board_pll_cfg
 .data.adc2     0x2000001c        0x8 C:\Users\TURBO9~1\AppData\Local\Temp\arduino_cache_432467\core\core_487b1ced4e7b37e8d402730d0433b7e0.a(adc_f1.c.o)
                0x2000001c                adc2
 .data.adc1     0x20000024       0x18 C:\Users\TURBO9~1\AppData\Local\Temp\arduino_cache_432467\core\core_487b1ced4e7b37e8d402730d0433b7e0.a(adc_f1.c.o)
                0x20000024                adc1
 .data.ADC2     0x2000003c        0x4 C:\Users\TURBO9~1\AppData\Local\Temp\arduino_cache_432467\core\core_487b1ced4e7b37e8d402730d0433b7e0.a(adc_f1.c.o)
                0x2000003c                ADC2
 .data.ADC1     0x20000040        0x4 C:\Users\TURBO9~1\AppData\Local\Temp\arduino_cache_432467\core\core_487b1ced4e7b37e8d402730d0433b7e0.a(adc_f1.c.o)
                0x20000040                ADC1
 .data.dma1     0x20000044       0x40 C:\Users\TURBO9~1\AppData\Local\Temp\arduino_cache_432467\core\core_487b1ced4e7b37e8d402730d0433b7e0.a(dma_f1.c.o)
 .data.DMA1     0x20000084        0x4 C:\Users\TURBO9~1\AppData\Local\Temp\arduino_cache_432467\core\core_487b1ced4e7b37e8d402730d0433b7e0.a(dma_f1.c.o)
                0x20000084                DMA1
 .data.gpioa    0x20000088        0x8 C:\Users\TURBO9~1\AppData\Local\Temp\arduino_cache_432467\core\core_487b1ced4e7b37e8d402730d0433b7e0.a(gpio_f1.c.o)
                0x20000088                gpioa
 .data.gpiob    0x20000090        0x8 C:\Users\TURBO9~1\AppData\Local\Temp\arduino_cache_432467\core\core_487b1ced4e7b37e8d402730d0433b7e0.a(gpio_f1.c.o)
                0x20000090                gpiob
 .data.gpioc    0x20000098        0x8 C:\Users\TURBO9~1\AppData\Local\Temp\arduino_cache_432467\core\core_487b1ced4e7b37e8d402730d0433b7e0.a(gpio_f1.c.o)
                0x20000098                gpioc
 .data.gpiod    0x200000a0        0x8 C:\Users\TURBO9~1\AppData\Local\Temp\arduino_cache_432467\core\core_487b1ced4e7b37e8d402730d0433b7e0.a(gpio_f1.c.o)
                0x200000a0                gpiod
 .data.i2c1     0x200000a8       0x24 C:\Users\TURBO9~1\AppData\Local\Temp\arduino_cache_432467\core\core_487b1ced4e7b37e8d402730d0433b7e0.a(i2c_f1.c.o)
 .data.i2c2     0x200000cc       0x24 C:\Users\TURBO9~1\AppData\Local\Temp\arduino_cache_432467\core\core_487b1ced4e7b37e8d402730d0433b7e0.a(i2c_f1.c.o)
 .data.enable_regs.4411
                0x200000f0        0xc C:\Users\TURBO9~1\AppData\Local\Temp\arduino_cache_432467\core\core_487b1ced4e7b37e8d402730d0433b7e0.a(rcc_f1.c.o)
 .data.reset_regs.4415
                0x200000fc        0x8 C:\Users\TURBO9~1\AppData\Local\Temp\arduino_cache_432467\core\core_487b1ced4e7b37e8d402730d0433b7e0.a(rcc_f1.c.o)
 .data.enable_regs.4424
                0x20000104        0xc C:\Users\TURBO9~1\AppData\Local\Temp\arduino_cache_432467\core\core_487b1ced4e7b37e8d402730d0433b7e0.a(rcc_f1.c.o)
 .data.timer3   0x20000110       0x24 C:\Users\TURBO9~1\AppData\Local\Temp\arduino_cache_432467\core\core_487b1ced4e7b37e8d402730d0433b7e0.a(timer.c.o)
                0x20000110                timer3
 .data.timer4   0x20000134       0x24 C:\Users\TURBO9~1\AppData\Local\Temp\arduino_cache_432467\core\core_487b1ced4e7b37e8d402730d0433b7e0.a(timer.c.o)
                0x20000134                timer4
 .data.timer1   0x20000158       0x28 C:\Users\TURBO9~1\AppData\Local\Temp\arduino_cache_432467\core\core_487b1ced4e7b37e8d402730d0433b7e0.a(timer.c.o)
                0x20000158                timer1
 .data.timer2   0x20000180       0x24 C:\Users\TURBO9~1\AppData\Local\Temp\arduino_cache_432467\core\core_487b1ced4e7b37e8d402730d0433b7e0.a(timer.c.o)
                0x20000180                timer2
 .data.USART1   0x200001a4        0x4 C:\Users\TURBO9~1\AppData\Local\Temp\arduino_cache_432467\core\core_487b1ced4e7b37e8d402730d0433b7e0.a(usart_f1.c.o)
                0x200001a4                USART1
 .data.USART2   0x200001a8        0x4 C:\Users\TURBO9~1\AppData\Local\Temp\arduino_cache_432467\core\core_487b1ced4e7b37e8d402730d0433b7e0.a(usart_f1.c.o)
                0x200001a8                USART2
 .data.USART3   0x200001ac        0x4 C:\Users\TURBO9~1\AppData\Local\Temp\arduino_cache_432467\core\core_487b1ced4e7b37e8d402730d0433b7e0.a(usart_f1.c.o)
                0x200001ac                USART3
 .data.usart1   0x200001b0       0x94 C:\Users\TURBO9~1\AppData\Local\Temp\arduino_cache_432467\core\core_487b1ced4e7b37e8d402730d0433b7e0.a(usart_f1.c.o)
 .data.usart2   0x20000244       0x94 C:\Users\TURBO9~1\AppData\Local\Temp\arduino_cache_432467\core\core_487b1ced4e7b37e8d402730d0433b7e0.a(usart_f1.c.o)
 .data.usart3   0x200002d8       0x94 C:\Users\TURBO9~1\AppData\Local\Temp\arduino_cache_432467\core\core_487b1ced4e7b37e8d402730d0433b7e0.a(usart_f1.c.o)
 .data.USBLIB   0x2000036c        0x4 C:\Users\TURBO9~1\AppData\Local\Temp\arduino_cache_432467\core\core_487b1ced4e7b37e8d402730d0433b7e0.a(usb.c.o)
                0x2000036c                USBLIB
 .data.usblib   0x20000370       0x10 C:\Users\TURBO9~1\AppData\Local\Temp\arduino_cache_432467\core\core_487b1ced4e7b37e8d402730d0433b7e0.a(usb.c.o)
 .data.Config_Descriptor
                0x20000380        0x8 C:\Users\TURBO9~1\AppData\Local\Temp\arduino_cache_432467\core\core_487b1ced4e7b37e8d402730d0433b7e0.a(usb_cdcacm.c.o)
 .data.Device_Property
                0x20000388       0x30 C:\Users\TURBO9~1\AppData\Local\Temp\arduino_cache_432467\core\core_487b1ced4e7b37e8d402730d0433b7e0.a(usb_cdcacm.c.o)
                0x20000388                Device_Property
 .data.ep_int_in
                0x200003b8       0x1c C:\Users\TURBO9~1\AppData\Local\Temp\arduino_cache_432467\core\core_487b1ced4e7b37e8d402730d0433b7e0.a(usb_cdcacm.c.o)
 .data.String_Descriptor
                0x200003d4       0x18 C:\Users\TURBO9~1\AppData\Local\Temp\arduino_cache_432467\core\core_487b1ced4e7b37e8d402730d0433b7e0.a(usb_cdcacm.c.o)
 .data.ep_int_out
                0x200003ec       0x1c C:\Users\TURBO9~1\AppData\Local\Temp\arduino_cache_432467\core\core_487b1ced4e7b37e8d402730d0433b7e0.a(usb_cdcacm.c.o)
 .data.line_coding
                0x20000408        0x7 C:\Users\TURBO9~1\AppData\Local\Temp\arduino_cache_432467\core\core_487b1ced4e7b37e8d402730d0433b7e0.a(usb_cdcacm.c.o)
 *fill*         0x2000040f        0x1 
 .data.User_Standard_Requests
                0x20000410       0x24 C:\Users\TURBO9~1\AppData\Local\Temp\arduino_cache_432467\core\core_487b1ced4e7b37e8d402730d0433b7e0.a(usb_cdcacm.c.o)
                0x20000410                User_Standard_Requests
 .data.Device_Descriptor
                0x20000434        0x8 C:\Users\TURBO9~1\AppData\Local\Temp\arduino_cache_432467\core\core_487b1ced4e7b37e8d402730d0433b7e0.a(usb_cdcacm.c.o)
 .data.Device_Table
                0x2000043c        0x2 C:\Users\TURBO9~1\AppData\Local\Temp\arduino_cache_432467\core\core_487b1ced4e7b37e8d402730d0433b7e0.a(usb_cdcacm.c.o)
                0x2000043c                Device_Table
 *fill*         0x2000043e        0x2 
 .data.impure_data
                0x20000440      0x428 c:/users/turbo9000/appdata/local/arduino15/packages/arduino/tools/arm-none-eabi-gcc/4.8.3-2014q1/bin/../lib/gcc/arm-none-eabi/4.8.3/../../../../arm-none-eabi/lib/armv7-m\libc.a(lib_a-impure.o)
                0x20000868                . = ALIGN (0x8)
                0x20000868                __data_end__ = .

.jcr            0x20000868        0x0 load address 0x08003e00
 .jcr           0x20000868        0x0 c:/users/turbo9000/appdata/local/arduino15/packages/arduino/tools/arm-none-eabi-gcc/4.8.3-2014q1/bin/../lib/gcc/arm-none-eabi/4.8.3/armv7-m/crtbegin.o

.igot.plt       0x20000868        0x0 load address 0x08003e00
 .igot.plt      0x00000000        0x0 c:/users/turbo9000/appdata/local/arduino15/packages/arduino/tools/arm-none-eabi-gcc/4.8.3-2014q1/bin/../lib/gcc/arm-none-eabi/4.8.3/armv7-m/crtbegin.o

.rodata         0x08003e00      0x384
 *(.rodata .rodata.* .gnu.linkonce.r.*)
 .rodata.PIN_MAP
                0x08003e00      0x230 C:\Users\TURBO9~1\AppData\Local\Temp\arduino_build_805463\core\board.cpp.o
                0x08003e00                PIN_MAP
 .rodata._ZTV14HardwareSerial
                0x08004030       0x28 C:\Users\TURBO9~1\AppData\Local\Temp\arduino_cache_432467\core\core_487b1ced4e7b37e8d402730d0433b7e0.a(HardwareSerial.cpp.o)
                0x08004030                vtable for HardwareSerial
 .rodata.GPIOA  0x08004058        0x4 C:\Users\TURBO9~1\AppData\Local\Temp\arduino_cache_432467\core\core_487b1ced4e7b37e8d402730d0433b7e0.a(gpio_f1.c.o)
                0x08004058                GPIOA
 .rodata.GPIOB  0x0800405c        0x4 C:\Users\TURBO9~1\AppData\Local\Temp\arduino_cache_432467\core\core_487b1ced4e7b37e8d402730d0433b7e0.a(gpio_f1.c.o)
                0x0800405c                GPIOB
 .rodata.GPIOC  0x08004060        0x4 C:\Users\TURBO9~1\AppData\Local\Temp\arduino_cache_432467\core\core_487b1ced4e7b37e8d402730d0433b7e0.a(gpio_f1.c.o)
                0x08004060                GPIOC
 .rodata.rcc_dev_table
                0x08004064       0x5c C:\Users\TURBO9~1\AppData\Local\Temp\arduino_cache_432467\core\core_487b1ced4e7b37e8d402730d0433b7e0.a(rcc_f1.c.o)
                0x08004064                rcc_dev_table
 .rodata.masks.4420
                0x080040c0       0x14 C:\Users\TURBO9~1\AppData\Local\Temp\arduino_cache_432467\core\core_487b1ced4e7b37e8d402730d0433b7e0.a(rcc_f1.c.o)
 .rodata.usbVcomDescriptor_iProduct
                0x080040d4        0xc C:\Users\TURBO9~1\AppData\Local\Temp\arduino_cache_432467\core\core_487b1ced4e7b37e8d402730d0433b7e0.a(usb_cdcacm.c.o)
 .rodata.usbVcomDescriptor_iManufacturer
                0x080040e0       0x12 C:\Users\TURBO9~1\AppData\Local\Temp\arduino_cache_432467\core\core_487b1ced4e7b37e8d402730d0433b7e0.a(usb_cdcacm.c.o)
 .rodata.usbVcomDescriptor_Device
                0x080040f2       0x12 C:\Users\TURBO9~1\AppData\Local\Temp\arduino_cache_432467\core\core_487b1ced4e7b37e8d402730d0433b7e0.a(usb_cdcacm.c.o)
 .rodata.usbVcomDescriptor_Config
                0x08004104       0x43 C:\Users\TURBO9~1\AppData\Local\Temp\arduino_cache_432467\core\core_487b1ced4e7b37e8d402730d0433b7e0.a(usb_cdcacm.c.o)
 .rodata.usbVcomDescriptor_LangID
                0x08004147        0x4 C:\Users\TURBO9~1\AppData\Local\Temp\arduino_cache_432467\core\core_487b1ced4e7b37e8d402730d0433b7e0.a(usb_cdcacm.c.o)
 *fill*         0x0800414b        0x5 
 .rodata._ZTV9USBSerial
                0x08004150       0x28 C:\Users\TURBO9~1\AppData\Local\Temp\arduino_cache_432467\core\core_487b1ced4e7b37e8d402730d0433b7e0.a(usb_serial.cpp.o)
                0x08004150                vtable for USBSerial
 .rodata.str1.4
                0x08004178        0x4 c:/users/turbo9000/appdata/local/arduino15/packages/arduino/tools/arm-none-eabi-gcc/4.8.3-2014q1/bin/../lib/gcc/arm-none-eabi/4.8.3/../../../../arm-none-eabi/lib/armv7-m\libc.a(lib_a-impure.o)
 .rodata._global_impure_ptr
                0x0800417c        0x4 c:/users/turbo9000/appdata/local/arduino15/packages/arduino/tools/arm-none-eabi-gcc/4.8.3-2014q1/bin/../lib/gcc/arm-none-eabi/4.8.3/../../../../arm-none-eabi/lib/armv7-m\libc.a(lib_a-impure.o)
                0x0800417c                _global_impure_ptr
 *(.USER_FLASH)
                0x08004180                . = ALIGN (0x4)
                0x08004180                _lm_rom_img_cfgp = .
                0x08004180        0x4 LONG 0x8003598 LOADADDR (.data)
                0x20000d30                _lm_heap_start = DEFINED (_lm_heap_start)?_lm_heap_start:_end
                0x20005000                _lm_heap_end = DEFINED (_lm_heap_end)?_lm_heap_end:__msp_init

.rel.dyn        0x08004184        0x0
 .rel.iplt      0x00000000        0x0 c:/users/turbo9000/appdata/local/arduino15/packages/arduino/tools/arm-none-eabi-gcc/4.8.3-2014q1/bin/../lib/gcc/arm-none-eabi/4.8.3/armv7-m/crtbegin.o

.bss            0x20000868      0x4c8
                0x20000868                . = ALIGN (0x8)
                0x20000868                __bss_start__ = .
 *(.bss .bss.* .gnu.linkonce.b.*)
 .bss           0x20000868       0x1c c:/users/turbo9000/appdata/local/arduino15/packages/arduino/tools/arm-none-eabi-gcc/4.8.3-2014q1/bin/../lib/gcc/arm-none-eabi/4.8.3/armv7-m/crtbegin.o
 .bss.outgoing  0x20000884        0x1 C:\Users\TURBO9~1\AppData\Local\Temp\arduino_build_805463\sketch\blue_pill_keyboard.ino.cpp.o
                0x20000884                outgoing
 .bss.head      0x20000885        0x1 C:\Users\TURBO9~1\AppData\Local\Temp\arduino_build_805463\sketch\blue_pill_keyboard.ino.cpp.o
                0x20000885                head
 .bss.hasParityError
                0x20000886        0x1 C:\Users\TURBO9~1\AppData\Local\Temp\arduino_build_805463\sketch\blue_pill_keyboard.ino.cpp.o
                0x20000886                hasParityError
 .bss.requestResendFromKeyboard
                0x20000887        0x1 C:\Users\TURBO9~1\AppData\Local\Temp\arduino_build_805463\sketch\blue_pill_keyboard.ino.cpp.o
                0x20000887                requestResendFromKeyboard
 .bss._parity   0x20000888        0x1 C:\Users\TURBO9~1\AppData\Local\Temp\arduino_build_805463\sketch\blue_pill_keyboard.ino.cpp.o
                0x20000888                _parity
 .bss.sendTail  0x20000889        0x1 C:\Users\TURBO9~1\AppData\Local\Temp\arduino_build_805463\sketch\blue_pill_keyboard.ino.cpp.o
                0x20000889                sendTail
 .bss.waitingForResetAck
                0x2000088a        0x1 C:\Users\TURBO9~1\AppData\Local\Temp\arduino_build_805463\sketch\blue_pill_keyboard.ino.cpp.o
                0x2000088a                waitingForResetAck
 .bss.TypematicStatusIncoming
                0x2000088b        0x1 C:\Users\TURBO9~1\AppData\Local\Temp\arduino_build_805463\sketch\blue_pill_keyboard.ino.cpp.o
                0x2000088b                TypematicStatusIncoming
 .bss.LEDstatusIncoming
                0x2000088c        0x1 C:\Users\TURBO9~1\AppData\Local\Temp\arduino_build_805463\sketch\blue_pill_keyboard.ino.cpp.o
                0x2000088c                LEDstatusIncoming
 .bss.incoming  0x2000088d        0x1 C:\Users\TURBO9~1\AppData\Local\Temp\arduino_build_805463\sketch\blue_pill_keyboard.ino.cpp.o
                0x2000088d                incoming
 .bss.sendBuffer
                0x2000088e       0x80 C:\Users\TURBO9~1\AppData\Local\Temp\arduino_build_805463\sketch\blue_pill_keyboard.ino.cpp.o
                0x2000088e                sendBuffer
 .bss.resendTimeout
                0x2000090e        0x1 C:\Users\TURBO9~1\AppData\Local\Temp\arduino_build_805463\sketch\blue_pill_keyboard.ino.cpp.o
                0x2000090e                resendTimeout
 .bss.buffer    0x2000090f       0x80 C:\Users\TURBO9~1\AppData\Local\Temp\arduino_build_805463\sketch\blue_pill_keyboard.ino.cpp.o
                0x2000090f                buffer
 .bss.sendHead  0x2000098f        0x1 C:\Users\TURBO9~1\AppData\Local\Temp\arduino_build_805463\sketch\blue_pill_keyboard.ino.cpp.o
                0x2000098f                sendHead
 .bss.prev_ms   0x20000990        0x4 C:\Users\TURBO9~1\AppData\Local\Temp\arduino_build_805463\sketch\blue_pill_keyboard.ino.cpp.o
                0x20000990                prev_ms
 .bss.WriteToPS2keyboard
                0x20000994        0x1 C:\Users\TURBO9~1\AppData\Local\Temp\arduino_build_805463\sketch\blue_pill_keyboard.ino.cpp.o
                0x20000994                WriteToPS2keyboard
 .bss.bitcount  0x20000995        0x1 C:\Users\TURBO9~1\AppData\Local\Temp\arduino_build_805463\sketch\blue_pill_keyboard.ino.cpp.o
                0x20000995                bitcount
 *fill*         0x20000996        0x2 
 .bss.LEDstatusByte
                0x20000998        0x4 C:\Users\TURBO9~1\AppData\Local\Temp\arduino_build_805463\sketch\blue_pill_keyboard.ino.cpp.o
                0x20000998                LEDstatusByte
 .bss.PS2busy   0x2000099c        0x1 C:\Users\TURBO9~1\AppData\Local\Temp\arduino_build_805463\sketch\blue_pill_keyboard.ino.cpp.o
                0x2000099c                PS2busy
 .bss._ZZ14Listen_To_SegavE13incomingValue
                0x2000099d        0x1 C:\Users\TURBO9~1\AppData\Local\Temp\arduino_build_805463\sketch\blue_pill_keyboard.ino.cpp.o
 .bss.tail      0x2000099e        0x1 C:\Users\TURBO9~1\AppData\Local\Temp\arduino_build_805463\sketch\blue_pill_keyboard.ino.cpp.o
                0x2000099e                tail
 .bss.ACKtimeout
                0x2000099f        0x1 C:\Users\TURBO9~1\AppData\Local\Temp\arduino_build_805463\sketch\blue_pill_keyboard.ino.cpp.o
                0x2000099f                ACKtimeout
 .bss.waitingForAck
                0x200009a0        0x1 C:\Users\TURBO9~1\AppData\Local\Temp\arduino_build_805463\sketch\blue_pill_keyboard.ino.cpp.o
                0x200009a0                waitingForAck
 *fill*         0x200009a1        0x3 
 .bss.Serial1   0x200009a4       0x18 C:\Users\TURBO9~1\AppData\Local\Temp\arduino_build_805463\core\board.cpp.o
                0x200009a4                Serial1
 .bss.Serial2   0x200009bc       0x18 C:\Users\TURBO9~1\AppData\Local\Temp\arduino_build_805463\core\board.cpp.o
                0x200009bc                Serial2
 .bss.Serial3   0x200009d4       0x18 C:\Users\TURBO9~1\AppData\Local\Temp\arduino_build_805463\core\board.cpp.o
                0x200009d4                Serial3
 .bss.exti_channels
                0x200009ec       0x80 C:\Users\TURBO9~1\AppData\Local\Temp\arduino_cache_432467\core\core_487b1ced4e7b37e8d402730d0433b7e0.a(exti.c.o)
 .bss.systick_user_callback
                0x20000a6c        0x4 C:\Users\TURBO9~1\AppData\Local\Temp\arduino_cache_432467\core\core_487b1ced4e7b37e8d402730d0433b7e0.a(systick.c.o)
 .bss.usart1_wb
                0x20000a70        0xc C:\Users\TURBO9~1\AppData\Local\Temp\arduino_cache_432467\core\core_487b1ced4e7b37e8d402730d0433b7e0.a(usart_f1.c.o)
 .bss.usart1_rb
                0x20000a7c        0xc C:\Users\TURBO9~1\AppData\Local\Temp\arduino_cache_432467\core\core_487b1ced4e7b37e8d402730d0433b7e0.a(usart_f1.c.o)
 .bss.usart2_rb
                0x20000a88        0xc C:\Users\TURBO9~1\AppData\Local\Temp\arduino_cache_432467\core\core_487b1ced4e7b37e8d402730d0433b7e0.a(usart_f1.c.o)
 .bss.usart3_rb
                0x20000a94        0xc C:\Users\TURBO9~1\AppData\Local\Temp\arduino_cache_432467\core\core_487b1ced4e7b37e8d402730d0433b7e0.a(usart_f1.c.o)
 .bss.usart2_wb
                0x20000aa0        0xc C:\Users\TURBO9~1\AppData\Local\Temp\arduino_cache_432467\core\core_487b1ced4e7b37e8d402730d0433b7e0.a(usart_f1.c.o)
 .bss.usart3_wb
                0x20000aac        0xc C:\Users\TURBO9~1\AppData\Local\Temp\arduino_cache_432467\core\core_487b1ced4e7b37e8d402730d0433b7e0.a(usart_f1.c.o)
 .bss.line_dtr_rts
                0x20000ab8        0x1 C:\Users\TURBO9~1\AppData\Local\Temp\arduino_cache_432467\core\core_487b1ced4e7b37e8d402730d0433b7e0.a(usb_cdcacm.c.o)
 .bss.vcomBufferTx
                0x20000ab9      0x100 C:\Users\TURBO9~1\AppData\Local\Temp\arduino_cache_432467\core\core_487b1ced4e7b37e8d402730d0433b7e0.a(usb_cdcacm.c.o)
 *fill*         0x20000bb9        0x3 
 .bss.tx_head   0x20000bbc        0x4 C:\Users\TURBO9~1\AppData\Local\Temp\arduino_cache_432467\core\core_487b1ced4e7b37e8d402730d0433b7e0.a(usb_cdcacm.c.o)
 .bss.rx_hook   0x20000bc0        0x4 C:\Users\TURBO9~1\AppData\Local\Temp\arduino_cache_432467\core\core_487b1ced4e7b37e8d402730d0433b7e0.a(usb_cdcacm.c.o)
 .bss.vcomBufferRx
                0x20000bc4      0x100 C:\Users\TURBO9~1\AppData\Local\Temp\arduino_cache_432467\core\core_487b1ced4e7b37e8d402730d0433b7e0.a(usb_cdcacm.c.o)
 .bss.transmitting
                0x20000cc4        0x1 C:\Users\TURBO9~1\AppData\Local\Temp\arduino_cache_432467\core\core_487b1ced4e7b37e8d402730d0433b7e0.a(usb_cdcacm.c.o)
 *fill*         0x20000cc5        0x3 
 .bss.rx_tail   0x20000cc8        0x4 C:\Users\TURBO9~1\AppData\Local\Temp\arduino_cache_432467\core\core_487b1ced4e7b37e8d402730d0433b7e0.a(usb_cdcacm.c.o)
 .bss.iface_setup_hook
                0x20000ccc        0x4 C:\Users\TURBO9~1\AppData\Local\Temp\arduino_cache_432467\core\core_487b1ced4e7b37e8d402730d0433b7e0.a(usb_cdcacm.c.o)
 .bss.rx_head   0x20000cd0        0x4 C:\Users\TURBO9~1\AppData\Local\Temp\arduino_cache_432467\core\core_487b1ced4e7b37e8d402730d0433b7e0.a(usb_cdcacm.c.o)
 .bss.tx_tail   0x20000cd4        0x4 C:\Users\TURBO9~1\AppData\Local\Temp\arduino_cache_432467\core\core_487b1ced4e7b37e8d402730d0433b7e0.a(usb_cdcacm.c.o)
 .bss.Data_Mul_MaxPacketSize
                0x20000cd8        0x1 C:\Users\TURBO9~1\AppData\Local\Temp\arduino_cache_432467\core\core_487b1ced4e7b37e8d402730d0433b7e0.a(usb_core.c.o)
                0x20000cd8                Data_Mul_MaxPacketSize
 .bss._ZN9USBSerial9_hasBegunE
                0x20000cd9        0x1 C:\Users\TURBO9~1\AppData\Local\Temp\arduino_cache_432467\core\core_487b1ced4e7b37e8d402730d0433b7e0.a(usb_serial.cpp.o)
                0x20000cd9                USBSerial::_hasBegun
 *fill*         0x20000cda        0x2 
 .bss.Serial    0x20000cdc       0x10 C:\Users\TURBO9~1\AppData\Local\Temp\arduino_cache_432467\core\core_487b1ced4e7b37e8d402730d0433b7e0.a(usb_serial.cpp.o)
                0x20000cdc                Serial
 .bss._ZL11reset_state
                0x20000cec        0x1 C:\Users\TURBO9~1\AppData\Local\Temp\arduino_cache_432467\core\core_487b1ced4e7b37e8d402730d0433b7e0.a(usb_serial.cpp.o)
 *(COMMON)
 *fill*         0x20000ced        0x3 
 COMMON         0x20000cf0        0x4 C:\Users\TURBO9~1\AppData\Local\Temp\arduino_cache_432467\core\core_487b1ced4e7b37e8d402730d0433b7e0.a(systick.c.o)
                0x20000cf0                systick_uptime_millis
 COMMON         0x20000cf4        0x6 C:\Users\TURBO9~1\AppData\Local\Temp\arduino_cache_432467\core\core_487b1ced4e7b37e8d402730d0433b7e0.a(usb.c.o)
                0x20000cf4                SaveRState
                0x20000cf6                SaveTState
                0x20000cf8                ResumeS
 COMMON         0x20000cfa        0x2 C:\Users\TURBO9~1\AppData\Local\Temp\arduino_cache_432467\core\core_487b1ced4e7b37e8d402730d0433b7e0.a(usb_core.c.o)
                0x20000cfa                StatusInfo
 COMMON         0x20000cfc       0x32 C:\Users\TURBO9~1\AppData\Local\Temp\arduino_cache_432467\core\core_487b1ced4e7b37e8d402730d0433b7e0.a(usb_init.c.o)
                0x20000cfc                SaveState
                0x20000d00                pProperty
                0x20000d04                EPindex
                0x20000d08                Device_Info
                0x20000d24                pUser_Standard_Requests
                0x20000d28                pInformation
                0x20000d2c                wInterrupt_Mask
                0x20000d30                . = ALIGN (0x8)
 *fill*         0x20000d2e        0x2 
                0x20000d30                __bss_end__ = .
                0x20000d30                _end = __bss_end__

.stab
 *(.stab)

.stabstr
 *(.stabstr)

.debug
 *(.debug)

.line
 *(.line)

.debug_srcinfo
 *(.debug_srcinfo)

.debug_sfnames
 *(.debug_sfnames)

.debug_aranges  0x00000000      0xff8
 *(.debug_aranges)
 .debug_aranges
                0x00000000       0xc0 C:\Users\TURBO9~1\AppData\Local\Temp\arduino_build_805463\sketch\blue_pill_keyboard.ino.cpp.o
 .debug_aranges
                0x000000c0       0x28 C:\Users\TURBO9~1\AppData\Local\Temp\arduino_build_805463\core\board.cpp.o
 .debug_aranges
                0x000000e8       0x40 C:\Users\TURBO9~1\AppData\Local\Temp\arduino_build_805463\core\wirish\boards.cpp.o
 .debug_aranges
                0x00000128       0x40 C:\Users\TURBO9~1\AppData\Local\Temp\arduino_build_805463\core\wirish\boards_setup.cpp.o
 .debug_aranges
                0x00000168       0x20 C:\Users\TURBO9~1\AppData\Local\Temp\arduino_build_805463\core\wirish\start.S.o
 .debug_aranges
                0x00000188       0x20 C:\Users\TURBO9~1\AppData\Local\Temp\arduino_build_805463\core\wirish\start_c.c.o
 .debug_aranges
                0x000001a8       0x88 C:\Users\TURBO9~1\AppData\Local\Temp\arduino_build_805463\core\wirish\syscalls.c.o
 .debug_aranges
                0x00000230       0x70 C:\Users\TURBO9~1\AppData\Local\Temp\arduino_cache_432467\core\core_487b1ced4e7b37e8d402730d0433b7e0.a(HardwareSerial.cpp.o)
 .debug_aranges
                0x000002a0      0x110 C:\Users\TURBO9~1\AppData\Local\Temp\arduino_cache_432467\core\core_487b1ced4e7b37e8d402730d0433b7e0.a(Print.cpp.o)
 .debug_aranges
                0x000003b0       0x20 C:\Users\TURBO9~1\AppData\Local\Temp\arduino_cache_432467\core\core_487b1ced4e7b37e8d402730d0433b7e0.a(cxxabi-compat.cpp.o)
 .debug_aranges
                0x000003d0       0x30 C:\Users\TURBO9~1\AppData\Local\Temp\arduino_cache_432467\core\core_487b1ced4e7b37e8d402730d0433b7e0.a(ext_interrupts.cpp.o)
 .debug_aranges
                0x00000400       0x38 C:\Users\TURBO9~1\AppData\Local\Temp\arduino_cache_432467\core\core_487b1ced4e7b37e8d402730d0433b7e0.a(adc.c.o)
 .debug_aranges
                0x00000438       0x58 C:\Users\TURBO9~1\AppData\Local\Temp\arduino_cache_432467\core\core_487b1ced4e7b37e8d402730d0433b7e0.a(adc_f1.c.o)
 .debug_aranges
                0x00000490       0xa8 C:\Users\TURBO9~1\AppData\Local\Temp\arduino_cache_432467\core\core_487b1ced4e7b37e8d402730d0433b7e0.a(dma_f1.c.o)
 .debug_aranges
                0x00000538       0x20 C:\Users\TURBO9~1\AppData\Local\Temp\arduino_cache_432467\core\core_487b1ced4e7b37e8d402730d0433b7e0.a(exc.S.o)
 .debug_aranges
                0x00000558       0x70 C:\Users\TURBO9~1\AppData\Local\Temp\arduino_cache_432467\core\core_487b1ced4e7b37e8d402730d0433b7e0.a(exti.c.o)
 .debug_aranges
                0x000005c8       0x20 C:\Users\TURBO9~1\AppData\Local\Temp\arduino_cache_432467\core\core_487b1ced4e7b37e8d402730d0433b7e0.a(exti_f1.c.o)
 .debug_aranges
                0x000005e8       0x20 C:\Users\TURBO9~1\AppData\Local\Temp\arduino_cache_432467\core\core_487b1ced4e7b37e8d402730d0433b7e0.a(flash.c.o)
 .debug_aranges
                0x00000608       0x40 C:\Users\TURBO9~1\AppData\Local\Temp\arduino_cache_432467\core\core_487b1ced4e7b37e8d402730d0433b7e0.a(gpio_f1.c.o)
 .debug_aranges
                0x00000648       0x50 C:\Users\TURBO9~1\AppData\Local\Temp\arduino_cache_432467\core\core_487b1ced4e7b37e8d402730d0433b7e0.a(i2c_f1.c.o)
 .debug_aranges
                0x00000698       0x38 C:\Users\TURBO9~1\AppData\Local\Temp\arduino_cache_432467\core\core_487b1ced4e7b37e8d402730d0433b7e0.a(nvic.c.o)
 .debug_aranges
                0x000006d0       0x48 C:\Users\TURBO9~1\AppData\Local\Temp\arduino_cache_432467\core\core_487b1ced4e7b37e8d402730d0433b7e0.a(rcc.c.o)
 .debug_aranges
                0x00000718       0x48 C:\Users\TURBO9~1\AppData\Local\Temp\arduino_cache_432467\core\core_487b1ced4e7b37e8d402730d0433b7e0.a(rcc_f1.c.o)
 .debug_aranges
                0x00000760       0x20 C:\Users\TURBO9~1\AppData\Local\Temp\arduino_cache_432467\core\core_487b1ced4e7b37e8d402730d0433b7e0.a(isrs.S.o)
 .debug_aranges
                0x00000780       0x40 C:\Users\TURBO9~1\AppData\Local\Temp\arduino_cache_432467\core\core_487b1ced4e7b37e8d402730d0433b7e0.a(systick.c.o)
 .debug_aranges
                0x000007c0       0xa8 C:\Users\TURBO9~1\AppData\Local\Temp\arduino_cache_432467\core\core_487b1ced4e7b37e8d402730d0433b7e0.a(timer.c.o)
 .debug_aranges
                0x00000868       0x48 C:\Users\TURBO9~1\AppData\Local\Temp\arduino_cache_432467\core\core_487b1ced4e7b37e8d402730d0433b7e0.a(usart.c.o)
 .debug_aranges
                0x000008b0       0x58 C:\Users\TURBO9~1\AppData\Local\Temp\arduino_cache_432467\core\core_487b1ced4e7b37e8d402730d0433b7e0.a(usart_f1.c.o)
 .debug_aranges
                0x00000908       0x20 C:\Users\TURBO9~1\AppData\Local\Temp\arduino_cache_432467\core\core_487b1ced4e7b37e8d402730d0433b7e0.a(usart_private.c.o)
 .debug_aranges
                0x00000928       0x38 C:\Users\TURBO9~1\AppData\Local\Temp\arduino_cache_432467\core\core_487b1ced4e7b37e8d402730d0433b7e0.a(usb.c.o)
 .debug_aranges
                0x00000960      0x128 C:\Users\TURBO9~1\AppData\Local\Temp\arduino_cache_432467\core\core_487b1ced4e7b37e8d402730d0433b7e0.a(usb_cdcacm.c.o)
 .debug_aranges
                0x00000a88       0x20 C:\Users\TURBO9~1\AppData\Local\Temp\arduino_cache_432467\core\core_487b1ced4e7b37e8d402730d0433b7e0.a(usb_reg_map.c.o)
 .debug_aranges
                0x00000aa8       0x98 C:\Users\TURBO9~1\AppData\Local\Temp\arduino_cache_432467\core\core_487b1ced4e7b37e8d402730d0433b7e0.a(usb_core.c.o)
 .debug_aranges
                0x00000b40       0x20 C:\Users\TURBO9~1\AppData\Local\Temp\arduino_cache_432467\core\core_487b1ced4e7b37e8d402730d0433b7e0.a(usb_init.c.o)
 .debug_aranges
                0x00000b60       0x28 C:\Users\TURBO9~1\AppData\Local\Temp\arduino_cache_432467\core\core_487b1ced4e7b37e8d402730d0433b7e0.a(usb_mem.c.o)
 .debug_aranges
                0x00000b88      0x1f0 C:\Users\TURBO9~1\AppData\Local\Temp\arduino_cache_432467\core\core_487b1ced4e7b37e8d402730d0433b7e0.a(usb_regs.c.o)
 .debug_aranges
                0x00000d78       0x50 C:\Users\TURBO9~1\AppData\Local\Temp\arduino_cache_432467\core\core_487b1ced4e7b37e8d402730d0433b7e0.a(util.c.o)
 .debug_aranges
                0x00000dc8       0x28 C:\Users\TURBO9~1\AppData\Local\Temp\arduino_cache_432467\core\core_487b1ced4e7b37e8d402730d0433b7e0.a(main.cpp.o)
 .debug_aranges
                0x00000df0       0xd0 C:\Users\TURBO9~1\AppData\Local\Temp\arduino_cache_432467\core\core_487b1ced4e7b37e8d402730d0433b7e0.a(usb_serial.cpp.o)
 .debug_aranges
                0x00000ec0       0x30 C:\Users\TURBO9~1\AppData\Local\Temp\arduino_cache_432467\core\core_487b1ced4e7b37e8d402730d0433b7e0.a(wirish_time.cpp.o)
 .debug_aranges
                0x00000ef0       0x20 C:\Users\TURBO9~1\AppData\Local\Temp\arduino_cache_432467\core\core_487b1ced4e7b37e8d402730d0433b7e0.a(hooks.c.o)
 .debug_aranges
                0x00000f10       0x40 C:\Users\TURBO9~1\AppData\Local\Temp\arduino_cache_432467\core\core_487b1ced4e7b37e8d402730d0433b7e0.a(bkp_f1.c.o)
 .debug_aranges
                0x00000f50       0x28 C:\Users\TURBO9~1\AppData\Local\Temp\arduino_cache_432467\core\core_487b1ced4e7b37e8d402730d0433b7e0.a(dma.c.o)
 .debug_aranges
                0x00000f78       0x20 C:\Users\TURBO9~1\AppData\Local\Temp\arduino_cache_432467\core\core_487b1ced4e7b37e8d402730d0433b7e0.a(gpio.c.o)
 .debug_aranges
                0x00000f98       0x60 C:\Users\TURBO9~1\AppData\Local\Temp\arduino_cache_432467\core\core_487b1ced4e7b37e8d402730d0433b7e0.a(i2c.c.o)

.debug_pubnames
 *(.debug_pubnames)

.debug_info     0x00000000    0x1ffc0
 *(.debug_info .gnu.linkonce.wi.*)
 .debug_info    0x00000000      0xfb2 C:\Users\TURBO9~1\AppData\Local\Temp\arduino_build_805463\sketch\blue_pill_keyboard.ino.cpp.o
 .debug_info    0x00000fb2      0xf2e C:\Users\TURBO9~1\AppData\Local\Temp\arduino_build_805463\core\board.cpp.o
 .debug_info    0x00001ee0     0x142d C:\Users\TURBO9~1\AppData\Local\Temp\arduino_build_805463\core\wirish\boards.cpp.o
 .debug_info    0x0000330d     0x10c5 C:\Users\TURBO9~1\AppData\Local\Temp\arduino_build_805463\core\wirish\boards_setup.cpp.o
 .debug_info    0x000043d2       0xb6 C:\Users\TURBO9~1\AppData\Local\Temp\arduino_build_805463\core\wirish\start.S.o
 .debug_info    0x00004488      0x176 C:\Users\TURBO9~1\AppData\Local\Temp\arduino_build_805463\core\wirish\start_c.c.o
 .debug_info    0x000045fe      0x5cd C:\Users\TURBO9~1\AppData\Local\Temp\arduino_build_805463\core\wirish\syscalls.c.o
 .debug_info    0x00004bcb     0x29ea C:\Users\TURBO9~1\AppData\Local\Temp\arduino_cache_432467\core\core_487b1ced4e7b37e8d402730d0433b7e0.a(HardwareSerial.cpp.o)
 .debug_info    0x000075b5     0x258c C:\Users\TURBO9~1\AppData\Local\Temp\arduino_cache_432467\core\core_487b1ced4e7b37e8d402730d0433b7e0.a(Print.cpp.o)
 .debug_info    0x00009b41       0x33 C:\Users\TURBO9~1\AppData\Local\Temp\arduino_cache_432467\core\core_487b1ced4e7b37e8d402730d0433b7e0.a(cxxabi-compat.cpp.o)
 .debug_info    0x00009b74      0xd1f C:\Users\TURBO9~1\AppData\Local\Temp\arduino_cache_432467\core\core_487b1ced4e7b37e8d402730d0433b7e0.a(ext_interrupts.cpp.o)
 .debug_info    0x0000a893      0x79a C:\Users\TURBO9~1\AppData\Local\Temp\arduino_cache_432467\core\core_487b1ced4e7b37e8d402730d0433b7e0.a(adc.c.o)
 .debug_info    0x0000b02d      0xe4a C:\Users\TURBO9~1\AppData\Local\Temp\arduino_cache_432467\core\core_487b1ced4e7b37e8d402730d0433b7e0.a(adc_f1.c.o)
 .debug_info    0x0000be77     0x19f2 C:\Users\TURBO9~1\AppData\Local\Temp\arduino_cache_432467\core\core_487b1ced4e7b37e8d402730d0433b7e0.a(dma_f1.c.o)
 .debug_info    0x0000d869       0xa6 C:\Users\TURBO9~1\AppData\Local\Temp\arduino_cache_432467\core\core_487b1ced4e7b37e8d402730d0433b7e0.a(exc.S.o)
 .debug_info    0x0000d90f      0xedd C:\Users\TURBO9~1\AppData\Local\Temp\arduino_cache_432467\core\core_487b1ced4e7b37e8d402730d0433b7e0.a(exti.c.o)
 .debug_info    0x0000e7ec      0x213 C:\Users\TURBO9~1\AppData\Local\Temp\arduino_cache_432467\core\core_487b1ced4e7b37e8d402730d0433b7e0.a(exti_f1.c.o)
 .debug_info    0x0000e9ff      0x128 C:\Users\TURBO9~1\AppData\Local\Temp\arduino_cache_432467\core\core_487b1ced4e7b37e8d402730d0433b7e0.a(flash.c.o)
 .debug_info    0x0000eb27      0x6d6 C:\Users\TURBO9~1\AppData\Local\Temp\arduino_cache_432467\core\core_487b1ced4e7b37e8d402730d0433b7e0.a(gpio_f1.c.o)
 .debug_info    0x0000f1fd      0xbd5 C:\Users\TURBO9~1\AppData\Local\Temp\arduino_cache_432467\core\core_487b1ced4e7b37e8d402730d0433b7e0.a(i2c_f1.c.o)
 .debug_info    0x0000fdd2      0x5a2 C:\Users\TURBO9~1\AppData\Local\Temp\arduino_cache_432467\core\core_487b1ced4e7b37e8d402730d0433b7e0.a(nvic.c.o)
 .debug_info    0x00010374      0x556 C:\Users\TURBO9~1\AppData\Local\Temp\arduino_cache_432467\core\core_487b1ced4e7b37e8d402730d0433b7e0.a(rcc.c.o)
 .debug_info    0x000108ca      0xb64 C:\Users\TURBO9~1\AppData\Local\Temp\arduino_cache_432467\core\core_487b1ced4e7b37e8d402730d0433b7e0.a(rcc_f1.c.o)
 .debug_info    0x0001142e       0xbb C:\Users\TURBO9~1\AppData\Local\Temp\arduino_cache_432467\core\core_487b1ced4e7b37e8d402730d0433b7e0.a(isrs.S.o)
 .debug_info    0x000114e9      0x182 C:\Users\TURBO9~1\AppData\Local\Temp\arduino_cache_432467\core\core_487b1ced4e7b37e8d402730d0433b7e0.a(systick.c.o)
 .debug_info    0x0001166b     0x1b6f C:\Users\TURBO9~1\AppData\Local\Temp\arduino_cache_432467\core\core_487b1ced4e7b37e8d402730d0433b7e0.a(timer.c.o)
 .debug_info    0x000131da      0xc32 C:\Users\TURBO9~1\AppData\Local\Temp\arduino_cache_432467\core\core_487b1ced4e7b37e8d402730d0433b7e0.a(usart.c.o)
 .debug_info    0x00013e0c      0xbc4 C:\Users\TURBO9~1\AppData\Local\Temp\arduino_cache_432467\core\core_487b1ced4e7b37e8d402730d0433b7e0.a(usart_f1.c.o)
 .debug_info    0x000149d0      0x595 C:\Users\TURBO9~1\AppData\Local\Temp\arduino_cache_432467\core\core_487b1ced4e7b37e8d402730d0433b7e0.a(usart_private.c.o)
 .debug_info    0x00014f65      0xd16 C:\Users\TURBO9~1\AppData\Local\Temp\arduino_cache_432467\core\core_487b1ced4e7b37e8d402730d0433b7e0.a(usb.c.o)
 .debug_info    0x00015c7b     0x22d2 C:\Users\TURBO9~1\AppData\Local\Temp\arduino_cache_432467\core\core_487b1ced4e7b37e8d402730d0433b7e0.a(usb_cdcacm.c.o)
 .debug_info    0x00017f4d      0x26c C:\Users\TURBO9~1\AppData\Local\Temp\arduino_cache_432467\core\core_487b1ced4e7b37e8d402730d0433b7e0.a(usb_reg_map.c.o)
 .debug_info    0x000181b9      0xddf C:\Users\TURBO9~1\AppData\Local\Temp\arduino_cache_432467\core\core_487b1ced4e7b37e8d402730d0433b7e0.a(usb_core.c.o)
 .debug_info    0x00018f98      0x3ed C:\Users\TURBO9~1\AppData\Local\Temp\arduino_cache_432467\core\core_487b1ced4e7b37e8d402730d0433b7e0.a(usb_init.c.o)
 .debug_info    0x00019385      0x17b C:\Users\TURBO9~1\AppData\Local\Temp\arduino_cache_432467\core\core_487b1ced4e7b37e8d402730d0433b7e0.a(usb_mem.c.o)
 .debug_info    0x00019500      0xc88 C:\Users\TURBO9~1\AppData\Local\Temp\arduino_cache_432467\core\core_487b1ced4e7b37e8d402730d0433b7e0.a(usb_regs.c.o)
 .debug_info    0x0001a188      0xad2 C:\Users\TURBO9~1\AppData\Local\Temp\arduino_cache_432467\core\core_487b1ced4e7b37e8d402730d0433b7e0.a(util.c.o)
 .debug_info    0x0001ac5a       0x99 C:\Users\TURBO9~1\AppData\Local\Temp\arduino_cache_432467\core\core_487b1ced4e7b37e8d402730d0433b7e0.a(main.cpp.o)
 .debug_info    0x0001acf3     0x2af6 C:\Users\TURBO9~1\AppData\Local\Temp\arduino_cache_432467\core\core_487b1ced4e7b37e8d402730d0433b7e0.a(usb_serial.cpp.o)
 .debug_info    0x0001d7e9      0x2c6 C:\Users\TURBO9~1\AppData\Local\Temp\arduino_cache_432467\core\core_487b1ced4e7b37e8d402730d0433b7e0.a(wirish_time.cpp.o)
 .debug_info    0x0001daaf       0x33 C:\Users\TURBO9~1\AppData\Local\Temp\arduino_cache_432467\core\core_487b1ced4e7b37e8d402730d0433b7e0.a(hooks.c.o)
 .debug_info    0x0001dae2      0x4ca C:\Users\TURBO9~1\AppData\Local\Temp\arduino_cache_432467\core\core_487b1ced4e7b37e8d402730d0433b7e0.a(bkp_f1.c.o)
 .debug_info    0x0001dfac      0x6f7 C:\Users\TURBO9~1\AppData\Local\Temp\arduino_cache_432467\core\core_487b1ced4e7b37e8d402730d0433b7e0.a(dma.c.o)
 .debug_info    0x0001e6a3      0x313 C:\Users\TURBO9~1\AppData\Local\Temp\arduino_cache_432467\core\core_487b1ced4e7b37e8d402730d0433b7e0.a(gpio.c.o)
 .debug_info    0x0001e9b6     0x160a C:\Users\TURBO9~1\AppData\Local\Temp\arduino_cache_432467\core\core_487b1ced4e7b37e8d402730d0433b7e0.a(i2c.c.o)

.debug_abbrev   0x00000000     0x605d
 *(.debug_abbrev)
 .debug_abbrev  0x00000000      0x2e2 C:\Users\TURBO9~1\AppData\Local\Temp\arduino_build_805463\sketch\blue_pill_keyboard.ino.cpp.o
 .debug_abbrev  0x000002e2      0x1ea C:\Users\TURBO9~1\AppData\Local\Temp\arduino_build_805463\core\board.cpp.o
 .debug_abbrev  0x000004cc      0x3dd C:\Users\TURBO9~1\AppData\Local\Temp\arduino_build_805463\core\wirish\boards.cpp.o
 .debug_abbrev  0x000008a9      0x2af C:\Users\TURBO9~1\AppData\Local\Temp\arduino_build_805463\core\wirish\boards_setup.cpp.o
 .debug_abbrev  0x00000b58       0x14 C:\Users\TURBO9~1\AppData\Local\Temp\arduino_build_805463\core\wirish\start.S.o
 .debug_abbrev  0x00000b6c      0x11f C:\Users\TURBO9~1\AppData\Local\Temp\arduino_build_805463\core\wirish\start_c.c.o
 .debug_abbrev  0x00000c8b      0x17e C:\Users\TURBO9~1\AppData\Local\Temp\arduino_build_805463\core\wirish\syscalls.c.o
 .debug_abbrev  0x00000e09      0x535 C:\Users\TURBO9~1\AppData\Local\Temp\arduino_cache_432467\core\core_487b1ced4e7b37e8d402730d0433b7e0.a(HardwareSerial.cpp.o)
 .debug_abbrev  0x0000133e      0x414 C:\Users\TURBO9~1\AppData\Local\Temp\arduino_cache_432467\core\core_487b1ced4e7b37e8d402730d0433b7e0.a(Print.cpp.o)
 .debug_abbrev  0x00001752       0x28 C:\Users\TURBO9~1\AppData\Local\Temp\arduino_cache_432467\core\core_487b1ced4e7b37e8d402730d0433b7e0.a(cxxabi-compat.cpp.o)
 .debug_abbrev  0x0000177a      0x200 C:\Users\TURBO9~1\AppData\Local\Temp\arduino_cache_432467\core\core_487b1ced4e7b37e8d402730d0433b7e0.a(ext_interrupts.cpp.o)
 .debug_abbrev  0x0000197a      0x20b C:\Users\TURBO9~1\AppData\Local\Temp\arduino_cache_432467\core\core_487b1ced4e7b37e8d402730d0433b7e0.a(adc.c.o)
 .debug_abbrev  0x00001b85      0x2e6 C:\Users\TURBO9~1\AppData\Local\Temp\arduino_cache_432467\core\core_487b1ced4e7b37e8d402730d0433b7e0.a(adc_f1.c.o)
 .debug_abbrev  0x00001e6b      0x3dd C:\Users\TURBO9~1\AppData\Local\Temp\arduino_cache_432467\core\core_487b1ced4e7b37e8d402730d0433b7e0.a(dma_f1.c.o)
 .debug_abbrev  0x00002248       0x14 C:\Users\TURBO9~1\AppData\Local\Temp\arduino_cache_432467\core\core_487b1ced4e7b37e8d402730d0433b7e0.a(exc.S.o)
 .debug_abbrev  0x0000225c      0x2a5 C:\Users\TURBO9~1\AppData\Local\Temp\arduino_cache_432467\core\core_487b1ced4e7b37e8d402730d0433b7e0.a(exti.c.o)
 .debug_abbrev  0x00002501       0xdb C:\Users\TURBO9~1\AppData\Local\Temp\arduino_cache_432467\core\core_487b1ced4e7b37e8d402730d0433b7e0.a(exti_f1.c.o)
 .debug_abbrev  0x000025dc       0x9f C:\Users\TURBO9~1\AppData\Local\Temp\arduino_cache_432467\core\core_487b1ced4e7b37e8d402730d0433b7e0.a(flash.c.o)
 .debug_abbrev  0x0000267b      0x191 C:\Users\TURBO9~1\AppData\Local\Temp\arduino_cache_432467\core\core_487b1ced4e7b37e8d402730d0433b7e0.a(gpio_f1.c.o)
 .debug_abbrev  0x0000280c      0x202 C:\Users\TURBO9~1\AppData\Local\Temp\arduino_cache_432467\core\core_487b1ced4e7b37e8d402730d0433b7e0.a(i2c_f1.c.o)
 .debug_abbrev  0x00002a0e      0x1ac C:\Users\TURBO9~1\AppData\Local\Temp\arduino_cache_432467\core\core_487b1ced4e7b37e8d402730d0433b7e0.a(nvic.c.o)
 .debug_abbrev  0x00002bba      0x17f C:\Users\TURBO9~1\AppData\Local\Temp\arduino_cache_432467\core\core_487b1ced4e7b37e8d402730d0433b7e0.a(rcc.c.o)
 .debug_abbrev  0x00002d39      0x28c C:\Users\TURBO9~1\AppData\Local\Temp\arduino_cache_432467\core\core_487b1ced4e7b37e8d402730d0433b7e0.a(rcc_f1.c.o)
 .debug_abbrev  0x00002fc5       0x14 C:\Users\TURBO9~1\AppData\Local\Temp\arduino_cache_432467\core\core_487b1ced4e7b37e8d402730d0433b7e0.a(isrs.S.o)
 .debug_abbrev  0x00002fd9      0x10f C:\Users\TURBO9~1\AppData\Local\Temp\arduino_cache_432467\core\core_487b1ced4e7b37e8d402730d0433b7e0.a(systick.c.o)
 .debug_abbrev  0x000030e8      0x474 C:\Users\TURBO9~1\AppData\Local\Temp\arduino_cache_432467\core\core_487b1ced4e7b37e8d402730d0433b7e0.a(timer.c.o)
 .debug_abbrev  0x0000355c      0x2ff C:\Users\TURBO9~1\AppData\Local\Temp\arduino_cache_432467\core\core_487b1ced4e7b37e8d402730d0433b7e0.a(usart.c.o)
 .debug_abbrev  0x0000385b      0x292 C:\Users\TURBO9~1\AppData\Local\Temp\arduino_cache_432467\core\core_487b1ced4e7b37e8d402730d0433b7e0.a(usart_f1.c.o)
 .debug_abbrev  0x00003aed      0x144 C:\Users\TURBO9~1\AppData\Local\Temp\arduino_cache_432467\core\core_487b1ced4e7b37e8d402730d0433b7e0.a(usart_private.c.o)
 .debug_abbrev  0x00003c31      0x352 C:\Users\TURBO9~1\AppData\Local\Temp\arduino_cache_432467\core\core_487b1ced4e7b37e8d402730d0433b7e0.a(usb.c.o)
 .debug_abbrev  0x00003f83      0x47d C:\Users\TURBO9~1\AppData\Local\Temp\arduino_cache_432467\core\core_487b1ced4e7b37e8d402730d0433b7e0.a(usb_cdcacm.c.o)
 .debug_abbrev  0x00004400      0x193 C:\Users\TURBO9~1\AppData\Local\Temp\arduino_cache_432467\core\core_487b1ced4e7b37e8d402730d0433b7e0.a(usb_reg_map.c.o)
 .debug_abbrev  0x00004593      0x3a6 C:\Users\TURBO9~1\AppData\Local\Temp\arduino_cache_432467\core\core_487b1ced4e7b37e8d402730d0433b7e0.a(usb_core.c.o)
 .debug_abbrev  0x00004939      0x101 C:\Users\TURBO9~1\AppData\Local\Temp\arduino_cache_432467\core\core_487b1ced4e7b37e8d402730d0433b7e0.a(usb_init.c.o)
 .debug_abbrev  0x00004a3a       0x90 C:\Users\TURBO9~1\AppData\Local\Temp\arduino_cache_432467\core\core_487b1ced4e7b37e8d402730d0433b7e0.a(usb_mem.c.o)
 .debug_abbrev  0x00004aca      0x1f3 C:\Users\TURBO9~1\AppData\Local\Temp\arduino_cache_432467\core\core_487b1ced4e7b37e8d402730d0433b7e0.a(usb_regs.c.o)
 .debug_abbrev  0x00004cbd      0x2c9 C:\Users\TURBO9~1\AppData\Local\Temp\arduino_cache_432467\core\core_487b1ced4e7b37e8d402730d0433b7e0.a(util.c.o)
 .debug_abbrev  0x00004f86       0x7b C:\Users\TURBO9~1\AppData\Local\Temp\arduino_cache_432467\core\core_487b1ced4e7b37e8d402730d0433b7e0.a(main.cpp.o)
 .debug_abbrev  0x00005001      0x654 C:\Users\TURBO9~1\AppData\Local\Temp\arduino_cache_432467\core\core_487b1ced4e7b37e8d402730d0433b7e0.a(usb_serial.cpp.o)
 .debug_abbrev  0x00005655      0x189 C:\Users\TURBO9~1\AppData\Local\Temp\arduino_cache_432467\core\core_487b1ced4e7b37e8d402730d0433b7e0.a(wirish_time.cpp.o)
 .debug_abbrev  0x000057de       0x26 C:\Users\TURBO9~1\AppData\Local\Temp\arduino_cache_432467\core\core_487b1ced4e7b37e8d402730d0433b7e0.a(hooks.c.o)
 .debug_abbrev  0x00005804      0x1c4 C:\Users\TURBO9~1\AppData\Local\Temp\arduino_cache_432467\core\core_487b1ced4e7b37e8d402730d0433b7e0.a(bkp_f1.c.o)
 .debug_abbrev  0x000059c8      0x182 C:\Users\TURBO9~1\AppData\Local\Temp\arduino_cache_432467\core\core_487b1ced4e7b37e8d402730d0433b7e0.a(dma.c.o)
 .debug_abbrev  0x00005b4a      0x113 C:\Users\TURBO9~1\AppData\Local\Temp\arduino_cache_432467\core\core_487b1ced4e7b37e8d402730d0433b7e0.a(gpio.c.o)
 .debug_abbrev  0x00005c5d      0x400 C:\Users\TURBO9~1\AppData\Local\Temp\arduino_cache_432467\core\core_487b1ced4e7b37e8d402730d0433b7e0.a(i2c.c.o)

.debug_line     0x00000000     0xa077
 *(.debug_line)
 .debug_line    0x00000000      0x7e1 C:\Users\TURBO9~1\AppData\Local\Temp\arduino_build_805463\sketch\blue_pill_keyboard.ino.cpp.o
 .debug_line    0x000007e1      0x406 C:\Users\TURBO9~1\AppData\Local\Temp\arduino_build_805463\core\board.cpp.o
 .debug_line    0x00000be7      0x48f C:\Users\TURBO9~1\AppData\Local\Temp\arduino_build_805463\core\wirish\boards.cpp.o
 .debug_line    0x00001076      0x470 C:\Users\TURBO9~1\AppData\Local\Temp\arduino_build_805463\core\wirish\boards_setup.cpp.o
 .debug_line    0x000014e6       0xa3 C:\Users\TURBO9~1\AppData\Local\Temp\arduino_build_805463\core\wirish\start.S.o
 .debug_line    0x00001589       0xb4 C:\Users\TURBO9~1\AppData\Local\Temp\arduino_build_805463\core\wirish\start_c.c.o
 .debug_line    0x0000163d      0x301 C:\Users\TURBO9~1\AppData\Local\Temp\arduino_build_805463\core\wirish\syscalls.c.o
 .debug_line    0x0000193e      0x533 C:\Users\TURBO9~1\AppData\Local\Temp\arduino_cache_432467\core\core_487b1ced4e7b37e8d402730d0433b7e0.a(HardwareSerial.cpp.o)
 .debug_line    0x00001e71      0x5b2 C:\Users\TURBO9~1\AppData\Local\Temp\arduino_cache_432467\core\core_487b1ced4e7b37e8d402730d0433b7e0.a(Print.cpp.o)
 .debug_line    0x00002423       0x8f C:\Users\TURBO9~1\AppData\Local\Temp\arduino_cache_432467\core\core_487b1ced4e7b37e8d402730d0433b7e0.a(cxxabi-compat.cpp.o)
 .debug_line    0x000024b2      0x380 C:\Users\TURBO9~1\AppData\Local\Temp\arduino_cache_432467\core\core_487b1ced4e7b37e8d402730d0433b7e0.a(ext_interrupts.cpp.o)
 .debug_line    0x00002832      0x317 C:\Users\TURBO9~1\AppData\Local\Temp\arduino_cache_432467\core\core_487b1ced4e7b37e8d402730d0433b7e0.a(adc.c.o)
 .debug_line    0x00002b49      0x3c3 C:\Users\TURBO9~1\AppData\Local\Temp\arduino_cache_432467\core\core_487b1ced4e7b37e8d402730d0433b7e0.a(adc_f1.c.o)
 .debug_line    0x00002f0c      0x647 C:\Users\TURBO9~1\AppData\Local\Temp\arduino_cache_432467\core\core_487b1ced4e7b37e8d402730d0433b7e0.a(dma_f1.c.o)
 .debug_line    0x00003553       0xa6 C:\Users\TURBO9~1\AppData\Local\Temp\arduino_cache_432467\core\core_487b1ced4e7b37e8d402730d0433b7e0.a(exc.S.o)
 .debug_line    0x000035f9      0x42d C:\Users\TURBO9~1\AppData\Local\Temp\arduino_cache_432467\core\core_487b1ced4e7b37e8d402730d0433b7e0.a(exti.c.o)
 .debug_line    0x00003a26      0x308 C:\Users\TURBO9~1\AppData\Local\Temp\arduino_cache_432467\core\core_487b1ced4e7b37e8d402730d0433b7e0.a(exti_f1.c.o)
 .debug_line    0x00003d2e      0x299 C:\Users\TURBO9~1\AppData\Local\Temp\arduino_cache_432467\core\core_487b1ced4e7b37e8d402730d0433b7e0.a(flash.c.o)
 .debug_line    0x00003fc7      0x32e C:\Users\TURBO9~1\AppData\Local\Temp\arduino_cache_432467\core\core_487b1ced4e7b37e8d402730d0433b7e0.a(gpio_f1.c.o)
 .debug_line    0x000042f5      0x418 C:\Users\TURBO9~1\AppData\Local\Temp\arduino_cache_432467\core\core_487b1ced4e7b37e8d402730d0433b7e0.a(i2c_f1.c.o)
 .debug_line    0x0000470d      0x301 C:\Users\TURBO9~1\AppData\Local\Temp\arduino_cache_432467\core\core_487b1ced4e7b37e8d402730d0433b7e0.a(nvic.c.o)
 .debug_line    0x00004a0e      0x389 C:\Users\TURBO9~1\AppData\Local\Temp\arduino_cache_432467\core\core_487b1ced4e7b37e8d402730d0433b7e0.a(rcc.c.o)
 .debug_line    0x00004d97      0x3d6 C:\Users\TURBO9~1\AppData\Local\Temp\arduino_cache_432467\core\core_487b1ced4e7b37e8d402730d0433b7e0.a(rcc_f1.c.o)
 .debug_line    0x0000516d       0xa3 C:\Users\TURBO9~1\AppData\Local\Temp\arduino_cache_432467\core\core_487b1ced4e7b37e8d402730d0433b7e0.a(isrs.S.o)
 .debug_line    0x00005210      0x27c C:\Users\TURBO9~1\AppData\Local\Temp\arduino_cache_432467\core\core_487b1ced4e7b37e8d402730d0433b7e0.a(systick.c.o)
 .debug_line    0x0000548c      0x5ca C:\Users\TURBO9~1\AppData\Local\Temp\arduino_cache_432467\core\core_487b1ced4e7b37e8d402730d0433b7e0.a(timer.c.o)
 .debug_line    0x00005a56      0x42f C:\Users\TURBO9~1\AppData\Local\Temp\arduino_cache_432467\core\core_487b1ced4e7b37e8d402730d0433b7e0.a(usart.c.o)
 .debug_line    0x00005e85      0x442 C:\Users\TURBO9~1\AppData\Local\Temp\arduino_cache_432467\core\core_487b1ced4e7b37e8d402730d0433b7e0.a(usart_f1.c.o)
 .debug_line    0x000062c7      0x2d5 C:\Users\TURBO9~1\AppData\Local\Temp\arduino_cache_432467\core\core_487b1ced4e7b37e8d402730d0433b7e0.a(usart_private.c.o)
 .debug_line    0x0000659c      0x4eb C:\Users\TURBO9~1\AppData\Local\Temp\arduino_cache_432467\core\core_487b1ced4e7b37e8d402730d0433b7e0.a(usb.c.o)
 .debug_line    0x00006a87      0x8f9 C:\Users\TURBO9~1\AppData\Local\Temp\arduino_cache_432467\core\core_487b1ced4e7b37e8d402730d0433b7e0.a(usb_cdcacm.c.o)
 .debug_line    0x00007380      0x2ca C:\Users\TURBO9~1\AppData\Local\Temp\arduino_cache_432467\core\core_487b1ced4e7b37e8d402730d0433b7e0.a(usb_reg_map.c.o)
 .debug_line    0x0000764a      0x40f C:\Users\TURBO9~1\AppData\Local\Temp\arduino_cache_432467\core\core_487b1ced4e7b37e8d402730d0433b7e0.a(usb_core.c.o)
 .debug_line    0x00007a59      0x124 C:\Users\TURBO9~1\AppData\Local\Temp\arduino_cache_432467\core\core_487b1ced4e7b37e8d402730d0433b7e0.a(usb_init.c.o)
 .debug_line    0x00007b7d      0x150 C:\Users\TURBO9~1\AppData\Local\Temp\arduino_cache_432467\core\core_487b1ced4e7b37e8d402730d0433b7e0.a(usb_mem.c.o)
 .debug_line    0x00007ccd      0x588 C:\Users\TURBO9~1\AppData\Local\Temp\arduino_cache_432467\core\core_487b1ced4e7b37e8d402730d0433b7e0.a(usb_regs.c.o)
 .debug_line    0x00008255      0x39d C:\Users\TURBO9~1\AppData\Local\Temp\arduino_cache_432467\core\core_487b1ced4e7b37e8d402730d0433b7e0.a(util.c.o)
 .debug_line    0x000085f2       0x9e C:\Users\TURBO9~1\AppData\Local\Temp\arduino_cache_432467\core\core_487b1ced4e7b37e8d402730d0433b7e0.a(main.cpp.o)
 .debug_line    0x00008690      0x697 C:\Users\TURBO9~1\AppData\Local\Temp\arduino_cache_432467\core\core_487b1ced4e7b37e8d402730d0433b7e0.a(usb_serial.cpp.o)
 .debug_line    0x00008d27      0x32f C:\Users\TURBO9~1\AppData\Local\Temp\arduino_cache_432467\core\core_487b1ced4e7b37e8d402730d0433b7e0.a(wirish_time.cpp.o)
 .debug_line    0x00009056       0x87 C:\Users\TURBO9~1\AppData\Local\Temp\arduino_cache_432467\core\core_487b1ced4e7b37e8d402730d0433b7e0.a(hooks.c.o)
 .debug_line    0x000090dd      0x313 C:\Users\TURBO9~1\AppData\Local\Temp\arduino_cache_432467\core\core_487b1ced4e7b37e8d402730d0433b7e0.a(bkp_f1.c.o)
 .debug_line    0x000093f0      0x352 C:\Users\TURBO9~1\AppData\Local\Temp\arduino_cache_432467\core\core_487b1ced4e7b37e8d402730d0433b7e0.a(dma.c.o)
 .debug_line    0x00009742      0x2be C:\Users\TURBO9~1\AppData\Local\Temp\arduino_cache_432467\core\core_487b1ced4e7b37e8d402730d0433b7e0.a(gpio.c.o)
 .debug_line    0x00009a00      0x677 C:\Users\TURBO9~1\AppData\Local\Temp\arduino_cache_432467\core\core_487b1ced4e7b37e8d402730d0433b7e0.a(i2c.c.o)

.debug_frame    0x00000000     0x2538
 *(.debug_frame)
 .debug_frame   0x00000000      0x200 C:\Users\TURBO9~1\AppData\Local\Temp\arduino_build_805463\sketch\blue_pill_keyboard.ino.cpp.o
 .debug_frame   0x00000200       0x38 C:\Users\TURBO9~1\AppData\Local\Temp\arduino_build_805463\core\board.cpp.o
 .debug_frame   0x00000238       0x84 C:\Users\TURBO9~1\AppData\Local\Temp\arduino_build_805463\core\wirish\boards.cpp.o
 .debug_frame   0x000002bc       0x74 C:\Users\TURBO9~1\AppData\Local\Temp\arduino_build_805463\core\wirish\boards_setup.cpp.o
 .debug_frame   0x00000330       0x28 C:\Users\TURBO9~1\AppData\Local\Temp\arduino_build_805463\core\wirish\start_c.c.o
 .debug_frame   0x00000358      0x130 C:\Users\TURBO9~1\AppData\Local\Temp\arduino_build_805463\core\wirish\syscalls.c.o
 .debug_frame   0x00000488      0x10c C:\Users\TURBO9~1\AppData\Local\Temp\arduino_cache_432467\core\core_487b1ced4e7b37e8d402730d0433b7e0.a(HardwareSerial.cpp.o)
 .debug_frame   0x00000594      0x378 C:\Users\TURBO9~1\AppData\Local\Temp\arduino_cache_432467\core\core_487b1ced4e7b37e8d402730d0433b7e0.a(Print.cpp.o)
 .debug_frame   0x0000090c       0x20 C:\Users\TURBO9~1\AppData\Local\Temp\arduino_cache_432467\core\core_487b1ced4e7b37e8d402730d0433b7e0.a(cxxabi-compat.cpp.o)
 .debug_frame   0x0000092c       0x60 C:\Users\TURBO9~1\AppData\Local\Temp\arduino_cache_432467\core\core_487b1ced4e7b37e8d402730d0433b7e0.a(ext_interrupts.cpp.o)
 .debug_frame   0x0000098c       0x64 C:\Users\TURBO9~1\AppData\Local\Temp\arduino_cache_432467\core\core_487b1ced4e7b37e8d402730d0433b7e0.a(adc.c.o)
 .debug_frame   0x000009f0       0xb4 C:\Users\TURBO9~1\AppData\Local\Temp\arduino_cache_432467\core\core_487b1ced4e7b37e8d402730d0433b7e0.a(adc_f1.c.o)
 .debug_frame   0x00000aa4      0x19c C:\Users\TURBO9~1\AppData\Local\Temp\arduino_cache_432467\core\core_487b1ced4e7b37e8d402730d0433b7e0.a(dma_f1.c.o)
 .debug_frame   0x00000c40      0x128 C:\Users\TURBO9~1\AppData\Local\Temp\arduino_cache_432467\core\core_487b1ced4e7b37e8d402730d0433b7e0.a(exti.c.o)
 .debug_frame   0x00000d68       0x20 C:\Users\TURBO9~1\AppData\Local\Temp\arduino_cache_432467\core\core_487b1ced4e7b37e8d402730d0433b7e0.a(exti_f1.c.o)
 .debug_frame   0x00000d88       0x20 C:\Users\TURBO9~1\AppData\Local\Temp\arduino_cache_432467\core\core_487b1ced4e7b37e8d402730d0433b7e0.a(flash.c.o)
 .debug_frame   0x00000da8       0x7c C:\Users\TURBO9~1\AppData\Local\Temp\arduino_cache_432467\core\core_487b1ced4e7b37e8d402730d0433b7e0.a(gpio_f1.c.o)
 .debug_frame   0x00000e24       0x9c C:\Users\TURBO9~1\AppData\Local\Temp\arduino_cache_432467\core\core_487b1ced4e7b37e8d402730d0433b7e0.a(i2c_f1.c.o)
 .debug_frame   0x00000ec0       0x5c C:\Users\TURBO9~1\AppData\Local\Temp\arduino_cache_432467\core\core_487b1ced4e7b37e8d402730d0433b7e0.a(nvic.c.o)
 .debug_frame   0x00000f1c       0x70 C:\Users\TURBO9~1\AppData\Local\Temp\arduino_cache_432467\core\core_487b1ced4e7b37e8d402730d0433b7e0.a(rcc.c.o)
 .debug_frame   0x00000f8c       0x98 C:\Users\TURBO9~1\AppData\Local\Temp\arduino_cache_432467\core\core_487b1ced4e7b37e8d402730d0433b7e0.a(rcc_f1.c.o)
 .debug_frame   0x00001024       0x68 C:\Users\TURBO9~1\AppData\Local\Temp\arduino_cache_432467\core\core_487b1ced4e7b37e8d402730d0433b7e0.a(systick.c.o)
 .debug_frame   0x0000108c      0x1d0 C:\Users\TURBO9~1\AppData\Local\Temp\arduino_cache_432467\core\core_487b1ced4e7b37e8d402730d0433b7e0.a(timer.c.o)
 .debug_frame   0x0000125c       0xb4 C:\Users\TURBO9~1\AppData\Local\Temp\arduino_cache_432467\core\core_487b1ced4e7b37e8d402730d0433b7e0.a(usart.c.o)
 .debug_frame   0x00001310       0xe0 C:\Users\TURBO9~1\AppData\Local\Temp\arduino_cache_432467\core\core_487b1ced4e7b37e8d402730d0433b7e0.a(usart_f1.c.o)
 .debug_frame   0x000013f0       0x28 C:\Users\TURBO9~1\AppData\Local\Temp\arduino_cache_432467\core\core_487b1ced4e7b37e8d402730d0433b7e0.a(usart_private.c.o)
 .debug_frame   0x00001418       0x6c C:\Users\TURBO9~1\AppData\Local\Temp\arduino_cache_432467\core\core_487b1ced4e7b37e8d402730d0433b7e0.a(usb.c.o)
 .debug_frame   0x00001484      0x2cc C:\Users\TURBO9~1\AppData\Local\Temp\arduino_cache_432467\core\core_487b1ced4e7b37e8d402730d0433b7e0.a(usb_cdcacm.c.o)
 .debug_frame   0x00001750       0x20 C:\Users\TURBO9~1\AppData\Local\Temp\arduino_cache_432467\core\core_487b1ced4e7b37e8d402730d0433b7e0.a(usb_reg_map.c.o)
 .debug_frame   0x00001770      0x1ac C:\Users\TURBO9~1\AppData\Local\Temp\arduino_cache_432467\core\core_487b1ced4e7b37e8d402730d0433b7e0.a(usb_core.c.o)
 .debug_frame   0x0000191c       0x28 C:\Users\TURBO9~1\AppData\Local\Temp\arduino_cache_432467\core\core_487b1ced4e7b37e8d402730d0433b7e0.a(usb_init.c.o)
 .debug_frame   0x00001944       0x44 C:\Users\TURBO9~1\AppData\Local\Temp\arduino_cache_432467\core\core_487b1ced4e7b37e8d402730d0433b7e0.a(usb_mem.c.o)
 .debug_frame   0x00001988      0x3d0 C:\Users\TURBO9~1\AppData\Local\Temp\arduino_cache_432467\core\core_487b1ced4e7b37e8d402730d0433b7e0.a(usb_regs.c.o)
 .debug_frame   0x00001d58       0xc8 C:\Users\TURBO9~1\AppData\Local\Temp\arduino_cache_432467\core\core_487b1ced4e7b37e8d402730d0433b7e0.a(util.c.o)
 .debug_frame   0x00001e20       0x38 C:\Users\TURBO9~1\AppData\Local\Temp\arduino_cache_432467\core\core_487b1ced4e7b37e8d402730d0433b7e0.a(main.cpp.o)
 .debug_frame   0x00001e58      0x238 C:\Users\TURBO9~1\AppData\Local\Temp\arduino_cache_432467\core\core_487b1ced4e7b37e8d402730d0433b7e0.a(usb_serial.cpp.o)
 .debug_frame   0x00002090       0x4c C:\Users\TURBO9~1\AppData\Local\Temp\arduino_cache_432467\core\core_487b1ced4e7b37e8d402730d0433b7e0.a(wirish_time.cpp.o)
 .debug_frame   0x000020dc       0x20 C:\Users\TURBO9~1\AppData\Local\Temp\arduino_cache_432467\core\core_487b1ced4e7b37e8d402730d0433b7e0.a(hooks.c.o)
 .debug_frame   0x000020fc       0x68 C:\Users\TURBO9~1\AppData\Local\Temp\arduino_cache_432467\core\core_487b1ced4e7b37e8d402730d0433b7e0.a(bkp_f1.c.o)
 .debug_frame   0x00002164       0x30 C:\Users\TURBO9~1\AppData\Local\Temp\arduino_cache_432467\core\core_487b1ced4e7b37e8d402730d0433b7e0.a(dma.c.o)
 .debug_frame   0x00002194       0x28 C:\Users\TURBO9~1\AppData\Local\Temp\arduino_cache_432467\core\core_487b1ced4e7b37e8d402730d0433b7e0.a(gpio.c.o)
 .debug_frame   0x000021bc       0xe0 C:\Users\TURBO9~1\AppData\Local\Temp\arduino_cache_432467\core\core_487b1ced4e7b37e8d402730d0433b7e0.a(i2c.c.o)
 .debug_frame   0x0000229c       0x2c c:/users/turbo9000/appdata/local/arduino15/packages/arduino/tools/arm-none-eabi-gcc/4.8.3-2014q1/bin/../lib/gcc/arm-none-eabi/4.8.3/armv7-m\libgcc.a(_fixdfdi.o)
 .debug_frame   0x000022c8       0x2c c:/users/turbo9000/appdata/local/arduino15/packages/arduino/tools/arm-none-eabi-gcc/4.8.3-2014q1/bin/../lib/gcc/arm-none-eabi/4.8.3/armv7-m\libgcc.a(_fixunsdfdi.o)
 .debug_frame   0x000022f4       0x58 c:/users/turbo9000/appdata/local/arduino15/packages/arduino/tools/arm-none-eabi-gcc/4.8.3-2014q1/bin/../lib/gcc/arm-none-eabi/4.8.3/armv7-m\libgcc.a(bpabi.o)
 .debug_frame   0x0000234c       0x34 c:/users/turbo9000/appdata/local/arduino15/packages/arduino/tools/arm-none-eabi-gcc/4.8.3-2014q1/bin/../lib/gcc/arm-none-eabi/4.8.3/armv7-m\libgcc.a(_divdi3.o)
 .debug_frame   0x00002380       0x34 c:/users/turbo9000/appdata/local/arduino15/packages/arduino/tools/arm-none-eabi-gcc/4.8.3-2014q1/bin/../lib/gcc/arm-none-eabi/4.8.3/armv7-m\libgcc.a(_udivdi3.o)
 .debug_frame   0x000023b4       0x20 c:/users/turbo9000/appdata/local/arduino15/packages/arduino/tools/arm-none-eabi-gcc/4.8.3-2014q1/bin/../lib/gcc/arm-none-eabi/4.8.3/../../../../arm-none-eabi/lib/armv7-m\libc.a(lib_a-errno.o)
 .debug_frame   0x000023d4       0x28 c:/users/turbo9000/appdata/local/arduino15/packages/arduino/tools/arm-none-eabi-gcc/4.8.3-2014q1/bin/../lib/gcc/arm-none-eabi/4.8.3/../../../../arm-none-eabi/lib/armv7-m\libc.a(lib_a-exit.o)
 .debug_frame   0x000023fc       0x2c c:/users/turbo9000/appdata/local/arduino15/packages/arduino/tools/arm-none-eabi-gcc/4.8.3-2014q1/bin/../lib/gcc/arm-none-eabi/4.8.3/../../../../arm-none-eabi/lib/armv7-m\libc.a(lib_a-init.o)
 .debug_frame   0x00002428       0x2c c:/users/turbo9000/appdata/local/arduino15/packages/arduino/tools/arm-none-eabi-gcc/4.8.3-2014q1/bin/../lib/gcc/arm-none-eabi/4.8.3/../../../../arm-none-eabi/lib/armv7-m\libc.a(lib_a-memset.o)
 .debug_frame   0x00002454       0x20 c:/users/turbo9000/appdata/local/arduino15/packages/arduino/tools/arm-none-eabi-gcc/4.8.3-2014q1/bin/../lib/gcc/arm-none-eabi/4.8.3/../../../../arm-none-eabi/lib/armv7-m\libc.a(lib_a-strlen.o)
 .debug_frame   0x00002474       0x48 c:/users/turbo9000/appdata/local/arduino15/packages/arduino/tools/arm-none-eabi-gcc/4.8.3-2014q1/bin/../lib/gcc/arm-none-eabi/4.8.3/../../../../arm-none-eabi/lib/armv7-m\libc.a(lib_a-__call_atexit.o)
 .debug_frame   0x000024bc       0x20 c:/users/turbo9000/appdata/local/arduino15/packages/arduino/tools/arm-none-eabi-gcc/4.8.3-2014q1/bin/../lib/gcc/arm-none-eabi/4.8.3/../../../../arm-none-eabi/lib/armv7-m\libc.a(lib_a-atexit.o)
 .debug_frame   0x000024dc       0x2c c:/users/turbo9000/appdata/local/arduino15/packages/arduino/tools/arm-none-eabi-gcc/4.8.3-2014q1/bin/../lib/gcc/arm-none-eabi/4.8.3/../../../../arm-none-eabi/lib/armv7-m\libc.a(lib_a-fini.o)
 .debug_frame   0x00002508       0x30 c:/users/turbo9000/appdata/local/arduino15/packages/arduino/tools/arm-none-eabi-gcc/4.8.3-2014q1/bin/../lib/gcc/arm-none-eabi/4.8.3/../../../../arm-none-eabi/lib/armv7-m\libc.a(lib_a-__atexit.o)

.debug_str      0x00000000     0x7bb1
 *(.debug_str)
 .debug_str     0x00000000      0x97b C:\Users\TURBO9~1\AppData\Local\Temp\arduino_build_805463\sketch\blue_pill_keyboard.ino.cpp.o
                                0xa43 (size before relaxing)
 .debug_str     0x0000097b      0x814 C:\Users\TURBO9~1\AppData\Local\Temp\arduino_build_805463\core\board.cpp.o
                                0xcfb (size before relaxing)
 .debug_str     0x0000118f      0x767 C:\Users\TURBO9~1\AppData\Local\Temp\arduino_build_805463\core\wirish\boards.cpp.o
                               0x1131 (size before relaxing)
 .debug_str     0x000018f6      0x52a C:\Users\TURBO9~1\AppData\Local\Temp\arduino_build_805463\core\wirish\boards_setup.cpp.o
                               0x127a (size before relaxing)
 .debug_str     0x00001e20      0x1bc C:\Users\TURBO9~1\AppData\Local\Temp\arduino_build_805463\core\wirish\start_c.c.o
                                0x1fa (size before relaxing)
 .debug_str     0x00001fdc      0x1d5 C:\Users\TURBO9~1\AppData\Local\Temp\arduino_build_805463\core\wirish\syscalls.c.o
                                0x37c (size before relaxing)
 .debug_str     0x000021b1     0x107b C:\Users\TURBO9~1\AppData\Local\Temp\arduino_cache_432467\core\core_487b1ced4e7b37e8d402730d0433b7e0.a(HardwareSerial.cpp.o)
                               0x1bd8 (size before relaxing)
 .debug_str     0x0000322c      0x427 C:\Users\TURBO9~1\AppData\Local\Temp\arduino_cache_432467\core\core_487b1ced4e7b37e8d402730d0433b7e0.a(Print.cpp.o)
                                0xfa6 (size before relaxing)
 .debug_str     0x00003653       0x75 C:\Users\TURBO9~1\AppData\Local\Temp\arduino_cache_432467\core\core_487b1ced4e7b37e8d402730d0433b7e0.a(cxxabi-compat.cpp.o)
                                0x174 (size before relaxing)
 .debug_str     0x000036c8      0x1bb C:\Users\TURBO9~1\AppData\Local\Temp\arduino_cache_432467\core\core_487b1ced4e7b37e8d402730d0433b7e0.a(ext_interrupts.cpp.o)
                                0xc48 (size before relaxing)
 .debug_str     0x00003883      0x214 C:\Users\TURBO9~1\AppData\Local\Temp\arduino_cache_432467\core\core_487b1ced4e7b37e8d402730d0433b7e0.a(adc.c.o)
                                0xac4 (size before relaxing)
 .debug_str     0x00003a97      0x166 C:\Users\TURBO9~1\AppData\Local\Temp\arduino_cache_432467\core\core_487b1ced4e7b37e8d402730d0433b7e0.a(adc_f1.c.o)
                                0xddf (size before relaxing)
 .debug_str     0x00003bfd      0xac2 C:\Users\TURBO9~1\AppData\Local\Temp\arduino_cache_432467\core\core_487b1ced4e7b37e8d402730d0433b7e0.a(dma_f1.c.o)
                               0x1387 (size before relaxing)
 .debug_str     0x000046bf      0x165 C:\Users\TURBO9~1\AppData\Local\Temp\arduino_cache_432467\core\core_487b1ced4e7b37e8d402730d0433b7e0.a(exti.c.o)
                                0x93e (size before relaxing)
 .debug_str     0x00004824       0xa0 C:\Users\TURBO9~1\AppData\Local\Temp\arduino_cache_432467\core\core_487b1ced4e7b37e8d402730d0433b7e0.a(exti_f1.c.o)
                                0x2e9 (size before relaxing)
 .debug_str     0x000048c4       0x6d C:\Users\TURBO9~1\AppData\Local\Temp\arduino_cache_432467\core\core_487b1ced4e7b37e8d402730d0433b7e0.a(flash.c.o)
                                0x208 (size before relaxing)
 .debug_str     0x00004931      0x2a7 C:\Users\TURBO9~1\AppData\Local\Temp\arduino_cache_432467\core\core_487b1ced4e7b37e8d402730d0433b7e0.a(gpio_f1.c.o)
                                0x7c0 (size before relaxing)
 .debug_str     0x00004bd8      0x22c C:\Users\TURBO9~1\AppData\Local\Temp\arduino_cache_432467\core\core_487b1ced4e7b37e8d402730d0433b7e0.a(i2c_f1.c.o)
                                0xd1d (size before relaxing)
 .debug_str     0x00004e04       0xdc C:\Users\TURBO9~1\AppData\Local\Temp\arduino_cache_432467\core\core_487b1ced4e7b37e8d402730d0433b7e0.a(nvic.c.o)
                                0x711 (size before relaxing)
 .debug_str     0x00004ee0      0x100 C:\Users\TURBO9~1\AppData\Local\Temp\arduino_cache_432467\core\core_487b1ced4e7b37e8d402730d0433b7e0.a(rcc.c.o)
                                0x55d (size before relaxing)
 .debug_str     0x00004fe0       0xf4 C:\Users\TURBO9~1\AppData\Local\Temp\arduino_cache_432467\core\core_487b1ced4e7b37e8d402730d0433b7e0.a(rcc_f1.c.o)
                                0x7fe (size before relaxing)
 .debug_str     0x000050d4       0xd9 C:\Users\TURBO9~1\AppData\Local\Temp\arduino_cache_432467\core\core_487b1ced4e7b37e8d402730d0433b7e0.a(systick.c.o)
                                0x26e (size before relaxing)
 .debug_str     0x000051ad      0x35f C:\Users\TURBO9~1\AppData\Local\Temp\arduino_cache_432467\core\core_487b1ced4e7b37e8d402730d0433b7e0.a(timer.c.o)
                                0xeb7 (size before relaxing)
 .debug_str     0x0000550c       0xdd C:\Users\TURBO9~1\AppData\Local\Temp\arduino_cache_432467\core\core_487b1ced4e7b37e8d402730d0433b7e0.a(usart.c.o)
                                0x9d4 (size before relaxing)
 .debug_str     0x000055e9      0x13c C:\Users\TURBO9~1\AppData\Local\Temp\arduino_cache_432467\core\core_487b1ced4e7b37e8d402730d0433b7e0.a(usart_f1.c.o)
                                0xac8 (size before relaxing)
 .debug_str     0x00005725       0x69 C:\Users\TURBO9~1\AppData\Local\Temp\arduino_cache_432467\core\core_487b1ced4e7b37e8d402730d0433b7e0.a(usart_private.c.o)
                                0x893 (size before relaxing)
 .debug_str     0x0000578e      0x612 C:\Users\TURBO9~1\AppData\Local\Temp\arduino_cache_432467\core\core_487b1ced4e7b37e8d402730d0433b7e0.a(usb.c.o)
                                0xa6b (size before relaxing)
 .debug_str     0x00005da0      0x999 C:\Users\TURBO9~1\AppData\Local\Temp\arduino_cache_432467\core\core_487b1ced4e7b37e8d402730d0433b7e0.a(usb_cdcacm.c.o)
                               0x183c (size before relaxing)
 .debug_str     0x00006739       0x96 C:\Users\TURBO9~1\AppData\Local\Temp\arduino_cache_432467\core\core_487b1ced4e7b37e8d402730d0433b7e0.a(usb_reg_map.c.o)
                                0x291 (size before relaxing)
 .debug_str     0x000067cf      0x496 C:\Users\TURBO9~1\AppData\Local\Temp\arduino_cache_432467\core\core_487b1ced4e7b37e8d402730d0433b7e0.a(usb_core.c.o)
                                0xac9 (size before relaxing)
 .debug_str     0x00006c65       0x9b C:\Users\TURBO9~1\AppData\Local\Temp\arduino_cache_432467\core\core_487b1ced4e7b37e8d402730d0433b7e0.a(usb_init.c.o)
                                0x52d (size before relaxing)
 .debug_str     0x00006d00       0x9f C:\Users\TURBO9~1\AppData\Local\Temp\arduino_cache_432467\core\core_487b1ced4e7b37e8d402730d0433b7e0.a(usb_mem.c.o)
                                0x1e3 (size before relaxing)
 .debug_str     0x00006d9f      0x3e0 C:\Users\TURBO9~1\AppData\Local\Temp\arduino_cache_432467\core\core_487b1ced4e7b37e8d402730d0433b7e0.a(usb_regs.c.o)
                                0x56b (size before relaxing)
 .debug_str     0x0000717f       0xfd C:\Users\TURBO9~1\AppData\Local\Temp\arduino_cache_432467\core\core_487b1ced4e7b37e8d402730d0433b7e0.a(util.c.o)
                                0xa40 (size before relaxing)
 .debug_str     0x0000727c       0x6d C:\Users\TURBO9~1\AppData\Local\Temp\arduino_cache_432467\core\core_487b1ced4e7b37e8d402730d0433b7e0.a(main.cpp.o)
                                0x19d (size before relaxing)
 .debug_str     0x000072e9      0x3c5 C:\Users\TURBO9~1\AppData\Local\Temp\arduino_cache_432467\core\core_487b1ced4e7b37e8d402730d0433b7e0.a(usb_serial.cpp.o)
                               0x1cdc (size before relaxing)
 .debug_str     0x000076ae       0x99 C:\Users\TURBO9~1\AppData\Local\Temp\arduino_cache_432467\core\core_487b1ced4e7b37e8d402730d0433b7e0.a(wirish_time.cpp.o)
                                0x324 (size before relaxing)
 .debug_str     0x00007747       0x60 C:\Users\TURBO9~1\AppData\Local\Temp\arduino_cache_432467\core\core_487b1ced4e7b37e8d402730d0433b7e0.a(hooks.c.o)
                                0x12a (size before relaxing)
 .debug_str     0x000077a7       0xa4 C:\Users\TURBO9~1\AppData\Local\Temp\arduino_cache_432467\core\core_487b1ced4e7b37e8d402730d0433b7e0.a(bkp_f1.c.o)
                                0x47d (size before relaxing)
 .debug_str     0x0000784b      0x137 C:\Users\TURBO9~1\AppData\Local\Temp\arduino_cache_432467\core\core_487b1ced4e7b37e8d402730d0433b7e0.a(dma.c.o)
                                0xa3c (size before relaxing)
 .debug_str     0x00007982       0x60 C:\Users\TURBO9~1\AppData\Local\Temp\arduino_cache_432467\core\core_487b1ced4e7b37e8d402730d0433b7e0.a(gpio.c.o)
                                0x44c (size before relaxing)
 .debug_str     0x000079e2      0x1cf C:\Users\TURBO9~1\AppData\Local\Temp\arduino_cache_432467\core\core_487b1ced4e7b37e8d402730d0433b7e0.a(i2c.c.o)
                                0xe74 (size before relaxing)

.debug_loc      0x00000000     0x8d64
 *(.debug_loc)
 .debug_loc     0x00000000      0x351 C:\Users\TURBO9~1\AppData\Local\Temp\arduino_build_805463\sketch\blue_pill_keyboard.ino.cpp.o
 .debug_loc     0x00000351      0x246 C:\Users\TURBO9~1\AppData\Local\Temp\arduino_build_805463\core\wirish\boards.cpp.o
 .debug_loc     0x00000597       0x13 C:\Users\TURBO9~1\AppData\Local\Temp\arduino_build_805463\core\wirish\boards_setup.cpp.o
 .debug_loc     0x000005aa       0xa5 C:\Users\TURBO9~1\AppData\Local\Temp\arduino_build_805463\core\wirish\start_c.c.o
 .debug_loc     0x0000064f      0x38a C:\Users\TURBO9~1\AppData\Local\Temp\arduino_build_805463\core\wirish\syscalls.c.o
 .debug_loc     0x000009d9      0x39a C:\Users\TURBO9~1\AppData\Local\Temp\arduino_cache_432467\core\core_487b1ced4e7b37e8d402730d0433b7e0.a(HardwareSerial.cpp.o)
 .debug_loc     0x00000d73     0x10a7 C:\Users\TURBO9~1\AppData\Local\Temp\arduino_cache_432467\core\core_487b1ced4e7b37e8d402730d0433b7e0.a(Print.cpp.o)
 .debug_loc     0x00001e1a      0x1d5 C:\Users\TURBO9~1\AppData\Local\Temp\arduino_cache_432467\core\core_487b1ced4e7b37e8d402730d0433b7e0.a(ext_interrupts.cpp.o)
 .debug_loc     0x00001fef      0x145 C:\Users\TURBO9~1\AppData\Local\Temp\arduino_cache_432467\core\core_487b1ced4e7b37e8d402730d0433b7e0.a(adc.c.o)
 .debug_loc     0x00002134      0x2c7 C:\Users\TURBO9~1\AppData\Local\Temp\arduino_cache_432467\core\core_487b1ced4e7b37e8d402730d0433b7e0.a(adc_f1.c.o)
 .debug_loc     0x000023fb      0xbfb C:\Users\TURBO9~1\AppData\Local\Temp\arduino_cache_432467\core\core_487b1ced4e7b37e8d402730d0433b7e0.a(dma_f1.c.o)
 .debug_loc     0x00002ff6      0x6f0 C:\Users\TURBO9~1\AppData\Local\Temp\arduino_cache_432467\core\core_487b1ced4e7b37e8d402730d0433b7e0.a(exti.c.o)
 .debug_loc     0x000036e6       0x42 C:\Users\TURBO9~1\AppData\Local\Temp\arduino_cache_432467\core\core_487b1ced4e7b37e8d402730d0433b7e0.a(exti_f1.c.o)
 .debug_loc     0x00003728       0x3f C:\Users\TURBO9~1\AppData\Local\Temp\arduino_cache_432467\core\core_487b1ced4e7b37e8d402730d0433b7e0.a(flash.c.o)
 .debug_loc     0x00003767      0x267 C:\Users\TURBO9~1\AppData\Local\Temp\arduino_cache_432467\core\core_487b1ced4e7b37e8d402730d0433b7e0.a(gpio_f1.c.o)
 .debug_loc     0x000039ce      0x1c4 C:\Users\TURBO9~1\AppData\Local\Temp\arduino_cache_432467\core\core_487b1ced4e7b37e8d402730d0433b7e0.a(i2c_f1.c.o)
 .debug_loc     0x00003b92      0x121 C:\Users\TURBO9~1\AppData\Local\Temp\arduino_cache_432467\core\core_487b1ced4e7b37e8d402730d0433b7e0.a(nvic.c.o)
 .debug_loc     0x00003cb3      0x131 C:\Users\TURBO9~1\AppData\Local\Temp\arduino_cache_432467\core\core_487b1ced4e7b37e8d402730d0433b7e0.a(rcc.c.o)
 .debug_loc     0x00003de4      0x352 C:\Users\TURBO9~1\AppData\Local\Temp\arduino_cache_432467\core\core_487b1ced4e7b37e8d402730d0433b7e0.a(rcc_f1.c.o)
 .debug_loc     0x00004136      0xcd0 C:\Users\TURBO9~1\AppData\Local\Temp\arduino_cache_432467\core\core_487b1ced4e7b37e8d402730d0433b7e0.a(timer.c.o)
 .debug_loc     0x00004e06      0x3af C:\Users\TURBO9~1\AppData\Local\Temp\arduino_cache_432467\core\core_487b1ced4e7b37e8d402730d0433b7e0.a(usart.c.o)
 .debug_loc     0x000051b5      0x2c6 C:\Users\TURBO9~1\AppData\Local\Temp\arduino_cache_432467\core\core_487b1ced4e7b37e8d402730d0433b7e0.a(usart_f1.c.o)
 .debug_loc     0x0000547b       0x3f C:\Users\TURBO9~1\AppData\Local\Temp\arduino_cache_432467\core\core_487b1ced4e7b37e8d402730d0433b7e0.a(usart_private.c.o)
 .debug_loc     0x000054ba      0x4c8 C:\Users\TURBO9~1\AppData\Local\Temp\arduino_cache_432467\core\core_487b1ced4e7b37e8d402730d0433b7e0.a(usb.c.o)
 .debug_loc     0x00005982      0xaab C:\Users\TURBO9~1\AppData\Local\Temp\arduino_cache_432467\core\core_487b1ced4e7b37e8d402730d0433b7e0.a(usb_cdcacm.c.o)
 .debug_loc     0x0000642d       0xf5 C:\Users\TURBO9~1\AppData\Local\Temp\arduino_cache_432467\core\core_487b1ced4e7b37e8d402730d0433b7e0.a(usb_reg_map.c.o)
 .debug_loc     0x00006522      0x7a1 C:\Users\TURBO9~1\AppData\Local\Temp\arduino_cache_432467\core\core_487b1ced4e7b37e8d402730d0433b7e0.a(usb_core.c.o)
 .debug_loc     0x00006cc3      0x293 C:\Users\TURBO9~1\AppData\Local\Temp\arduino_cache_432467\core\core_487b1ced4e7b37e8d402730d0433b7e0.a(usb_mem.c.o)
 .debug_loc     0x00006f56      0xbab C:\Users\TURBO9~1\AppData\Local\Temp\arduino_cache_432467\core\core_487b1ced4e7b37e8d402730d0433b7e0.a(usb_regs.c.o)
 .debug_loc     0x00007b01      0x27f C:\Users\TURBO9~1\AppData\Local\Temp\arduino_cache_432467\core\core_487b1ced4e7b37e8d402730d0433b7e0.a(util.c.o)
 .debug_loc     0x00007d80      0x5bd C:\Users\TURBO9~1\AppData\Local\Temp\arduino_cache_432467\core\core_487b1ced4e7b37e8d402730d0433b7e0.a(usb_serial.cpp.o)
 .debug_loc     0x0000833d       0x82 C:\Users\TURBO9~1\AppData\Local\Temp\arduino_cache_432467\core\core_487b1ced4e7b37e8d402730d0433b7e0.a(wirish_time.cpp.o)
 .debug_loc     0x000083bf       0xb3 C:\Users\TURBO9~1\AppData\Local\Temp\arduino_cache_432467\core\core_487b1ced4e7b37e8d402730d0433b7e0.a(bkp_f1.c.o)
 .debug_loc     0x00008472       0x42 C:\Users\TURBO9~1\AppData\Local\Temp\arduino_cache_432467\core\core_487b1ced4e7b37e8d402730d0433b7e0.a(dma.c.o)
 .debug_loc     0x000084b4       0x2c C:\Users\TURBO9~1\AppData\Local\Temp\arduino_cache_432467\core\core_487b1ced4e7b37e8d402730d0433b7e0.a(gpio.c.o)
 .debug_loc     0x000084e0      0x884 C:\Users\TURBO9~1\AppData\Local\Temp\arduino_cache_432467\core\core_487b1ced4e7b37e8d402730d0433b7e0.a(i2c.c.o)

.debug_macinfo
 *(.debug_macinfo)

.debug_weaknames
 *(.debug_weaknames)

.debug_funcnames
 *(.debug_funcnames)

.debug_typenames
 *(.debug_typenames)

.debug_varnames
 *(.debug_varnames)

.note.gnu.arm.ident
 *(.note.gnu.arm.ident)

.ARM.attributes
                0x00000000       0x29
 *(.ARM.attributes)
 .ARM.attributes
                0x00000000       0x1d c:/users/turbo9000/appdata/local/arduino15/packages/arduino/tools/arm-none-eabi-gcc/4.8.3-2014q1/bin/../lib/gcc/arm-none-eabi/4.8.3/armv7-m/crti.o
 .ARM.attributes
                0x0000001d       0x2d c:/users/turbo9000/appdata/local/arduino15/packages/arduino/tools/arm-none-eabi-gcc/4.8.3-2014q1/bin/../lib/gcc/arm-none-eabi/4.8.3/armv7-m/crtbegin.o
 .ARM.attributes
                0x0000004a       0x1b c:/users/turbo9000/appdata/local/arduino15/packages/arduino/tools/arm-none-eabi-gcc/4.8.3-2014q1/bin/../lib/gcc/arm-none-eabi/4.8.3/../../../../arm-none-eabi/lib/armv7-m/crt0.o
 .ARM.attributes
                0x00000065       0x33 C:\Users\TURBO9~1\AppData\Local\Temp\arduino_build_805463\sketch\blue_pill_keyboard.ino.cpp.o
 .ARM.attributes
                0x00000098       0x33 C:\Users\TURBO9~1\AppData\Local\Temp\arduino_build_805463\core\board.cpp.o
 .ARM.attributes
                0x000000cb       0x33 C:\Users\TURBO9~1\AppData\Local\Temp\arduino_build_805463\core\wirish\boards.cpp.o
 .ARM.attributes
                0x000000fe       0x33 C:\Users\TURBO9~1\AppData\Local\Temp\arduino_build_805463\core\wirish\boards_setup.cpp.o
 .ARM.attributes
                0x00000131       0x1b C:\Users\TURBO9~1\AppData\Local\Temp\arduino_build_805463\core\wirish\start.S.o
 .ARM.attributes
                0x0000014c       0x33 C:\Users\TURBO9~1\AppData\Local\Temp\arduino_build_805463\core\wirish\start_c.c.o
 .ARM.attributes
                0x0000017f       0x33 C:\Users\TURBO9~1\AppData\Local\Temp\arduino_build_805463\core\wirish\syscalls.c.o
 .ARM.attributes
                0x000001b2       0x33 C:\Users\TURBO9~1\AppData\Local\Temp\arduino_cache_432467\core\core_487b1ced4e7b37e8d402730d0433b7e0.a(HardwareSerial.cpp.o)
 .ARM.attributes
                0x000001e5       0x33 C:\Users\TURBO9~1\AppData\Local\Temp\arduino_cache_432467\core\core_487b1ced4e7b37e8d402730d0433b7e0.a(Print.cpp.o)
 .ARM.attributes
                0x00000218       0x33 C:\Users\TURBO9~1\AppData\Local\Temp\arduino_cache_432467\core\core_487b1ced4e7b37e8d402730d0433b7e0.a(cxxabi-compat.cpp.o)
 .ARM.attributes
                0x0000024b       0x33 C:\Users\TURBO9~1\AppData\Local\Temp\arduino_cache_432467\core\core_487b1ced4e7b37e8d402730d0433b7e0.a(ext_interrupts.cpp.o)
 .ARM.attributes
                0x0000027e       0x33 C:\Users\TURBO9~1\AppData\Local\Temp\arduino_cache_432467\core\core_487b1ced4e7b37e8d402730d0433b7e0.a(adc.c.o)
 .ARM.attributes
                0x000002b1       0x33 C:\Users\TURBO9~1\AppData\Local\Temp\arduino_cache_432467\core\core_487b1ced4e7b37e8d402730d0433b7e0.a(adc_f1.c.o)
 .ARM.attributes
                0x000002e4       0x33 C:\Users\TURBO9~1\AppData\Local\Temp\arduino_cache_432467\core\core_487b1ced4e7b37e8d402730d0433b7e0.a(dma_f1.c.o)
 .ARM.attributes
                0x00000317       0x1b C:\Users\TURBO9~1\AppData\Local\Temp\arduino_cache_432467\core\core_487b1ced4e7b37e8d402730d0433b7e0.a(exc.S.o)
 .ARM.attributes
                0x00000332       0x33 C:\Users\TURBO9~1\AppData\Local\Temp\arduino_cache_432467\core\core_487b1ced4e7b37e8d402730d0433b7e0.a(exti.c.o)
 .ARM.attributes
                0x00000365       0x33 C:\Users\TURBO9~1\AppData\Local\Temp\arduino_cache_432467\core\core_487b1ced4e7b37e8d402730d0433b7e0.a(exti_f1.c.o)
 .ARM.attributes
                0x00000398       0x33 C:\Users\TURBO9~1\AppData\Local\Temp\arduino_cache_432467\core\core_487b1ced4e7b37e8d402730d0433b7e0.a(flash.c.o)
 .ARM.attributes
                0x000003cb       0x33 C:\Users\TURBO9~1\AppData\Local\Temp\arduino_cache_432467\core\core_487b1ced4e7b37e8d402730d0433b7e0.a(gpio_f1.c.o)
 .ARM.attributes
                0x000003fe       0x33 C:\Users\TURBO9~1\AppData\Local\Temp\arduino_cache_432467\core\core_487b1ced4e7b37e8d402730d0433b7e0.a(i2c_f1.c.o)
 .ARM.attributes
                0x00000431       0x33 C:\Users\TURBO9~1\AppData\Local\Temp\arduino_cache_432467\core\core_487b1ced4e7b37e8d402730d0433b7e0.a(nvic.c.o)
 .ARM.attributes
                0x00000464       0x33 C:\Users\TURBO9~1\AppData\Local\Temp\arduino_cache_432467\core\core_487b1ced4e7b37e8d402730d0433b7e0.a(rcc.c.o)
 .ARM.attributes
                0x00000497       0x33 C:\Users\TURBO9~1\AppData\Local\Temp\arduino_cache_432467\core\core_487b1ced4e7b37e8d402730d0433b7e0.a(rcc_f1.c.o)
 .ARM.attributes
                0x000004ca       0x1b C:\Users\TURBO9~1\AppData\Local\Temp\arduino_cache_432467\core\core_487b1ced4e7b37e8d402730d0433b7e0.a(isrs.S.o)
 .ARM.attributes
                0x000004e5       0x1b C:\Users\TURBO9~1\AppData\Local\Temp\arduino_cache_432467\core\core_487b1ced4e7b37e8d402730d0433b7e0.a(vector_table.S.o)
 .ARM.attributes
                0x00000500       0x33 C:\Users\TURBO9~1\AppData\Local\Temp\arduino_cache_432467\core\core_487b1ced4e7b37e8d402730d0433b7e0.a(systick.c.o)
 .ARM.attributes
                0x00000533       0x33 C:\Users\TURBO9~1\AppData\Local\Temp\arduino_cache_432467\core\core_487b1ced4e7b37e8d402730d0433b7e0.a(timer.c.o)
 .ARM.attributes
                0x00000566       0x33 C:\Users\TURBO9~1\AppData\Local\Temp\arduino_cache_432467\core\core_487b1ced4e7b37e8d402730d0433b7e0.a(usart.c.o)
 .ARM.attributes
                0x00000599       0x33 C:\Users\TURBO9~1\AppData\Local\Temp\arduino_cache_432467\core\core_487b1ced4e7b37e8d402730d0433b7e0.a(usart_f1.c.o)
 .ARM.attributes
                0x000005cc       0x33 C:\Users\TURBO9~1\AppData\Local\Temp\arduino_cache_432467\core\core_487b1ced4e7b37e8d402730d0433b7e0.a(usart_private.c.o)
 .ARM.attributes
                0x000005ff       0x33 C:\Users\TURBO9~1\AppData\Local\Temp\arduino_cache_432467\core\core_487b1ced4e7b37e8d402730d0433b7e0.a(usb.c.o)
 .ARM.attributes
                0x00000632       0x33 C:\Users\TURBO9~1\AppData\Local\Temp\arduino_cache_432467\core\core_487b1ced4e7b37e8d402730d0433b7e0.a(usb_cdcacm.c.o)
 .ARM.attributes
                0x00000665       0x33 C:\Users\TURBO9~1\AppData\Local\Temp\arduino_cache_432467\core\core_487b1ced4e7b37e8d402730d0433b7e0.a(usb_reg_map.c.o)
 .ARM.attributes
                0x00000698       0x33 C:\Users\TURBO9~1\AppData\Local\Temp\arduino_cache_432467\core\core_487b1ced4e7b37e8d402730d0433b7e0.a(usb_core.c.o)
 .ARM.attributes
                0x000006cb       0x33 C:\Users\TURBO9~1\AppData\Local\Temp\arduino_cache_432467\core\core_487b1ced4e7b37e8d402730d0433b7e0.a(usb_init.c.o)
 .ARM.attributes
                0x000006fe       0x33 C:\Users\TURBO9~1\AppData\Local\Temp\arduino_cache_432467\core\core_487b1ced4e7b37e8d402730d0433b7e0.a(usb_mem.c.o)
 .ARM.attributes
                0x00000731       0x33 C:\Users\TURBO9~1\AppData\Local\Temp\arduino_cache_432467\core\core_487b1ced4e7b37e8d402730d0433b7e0.a(usb_regs.c.o)
 .ARM.attributes
                0x00000764       0x33 C:\Users\TURBO9~1\AppData\Local\Temp\arduino_cache_432467\core\core_487b1ced4e7b37e8d402730d0433b7e0.a(util.c.o)
 .ARM.attributes
                0x00000797       0x33 C:\Users\TURBO9~1\AppData\Local\Temp\arduino_cache_432467\core\core_487b1ced4e7b37e8d402730d0433b7e0.a(main.cpp.o)
 .ARM.attributes
                0x000007ca       0x33 C:\Users\TURBO9~1\AppData\Local\Temp\arduino_cache_432467\core\core_487b1ced4e7b37e8d402730d0433b7e0.a(usb_serial.cpp.o)
 .ARM.attributes
                0x000007fd       0x33 C:\Users\TURBO9~1\AppData\Local\Temp\arduino_cache_432467\core\core_487b1ced4e7b37e8d402730d0433b7e0.a(wirish_time.cpp.o)
 .ARM.attributes
                0x00000830       0x33 C:\Users\TURBO9~1\AppData\Local\Temp\arduino_cache_432467\core\core_487b1ced4e7b37e8d402730d0433b7e0.a(hooks.c.o)
 .ARM.attributes
                0x00000863       0x33 C:\Users\TURBO9~1\AppData\Local\Temp\arduino_cache_432467\core\core_487b1ced4e7b37e8d402730d0433b7e0.a(bkp_f1.c.o)
 .ARM.attributes
                0x00000896       0x33 C:\Users\TURBO9~1\AppData\Local\Temp\arduino_cache_432467\core\core_487b1ced4e7b37e8d402730d0433b7e0.a(dma.c.o)
 .ARM.attributes
                0x000008c9       0x33 C:\Users\TURBO9~1\AppData\Local\Temp\arduino_cache_432467\core\core_487b1ced4e7b37e8d402730d0433b7e0.a(gpio.c.o)
 .ARM.attributes
                0x000008fc       0x33 C:\Users\TURBO9~1\AppData\Local\Temp\arduino_cache_432467\core\core_487b1ced4e7b37e8d402730d0433b7e0.a(i2c.c.o)
 .ARM.attributes
                0x0000092f       0x1d c:/users/turbo9000/appdata/local/arduino15/packages/arduino/tools/arm-none-eabi-gcc/4.8.3-2014q1/bin/../lib/gcc/arm-none-eabi/4.8.3/armv7-m\libgcc.a(_arm_addsubdf3.o)
 .ARM.attributes
                0x0000094c       0x1d c:/users/turbo9000/appdata/local/arduino15/packages/arduino/tools/arm-none-eabi-gcc/4.8.3-2014q1/bin/../lib/gcc/arm-none-eabi/4.8.3/armv7-m\libgcc.a(_arm_muldivdf3.o)
 .ARM.attributes
                0x00000969       0x1d c:/users/turbo9000/appdata/local/arduino15/packages/arduino/tools/arm-none-eabi-gcc/4.8.3-2014q1/bin/../lib/gcc/arm-none-eabi/4.8.3/armv7-m\libgcc.a(_arm_cmpdf2.o)
 .ARM.attributes
                0x00000986       0x1d c:/users/turbo9000/appdata/local/arduino15/packages/arduino/tools/arm-none-eabi-gcc/4.8.3-2014q1/bin/../lib/gcc/arm-none-eabi/4.8.3/armv7-m\libgcc.a(_arm_fixdfsi.o)
 .ARM.attributes
                0x000009a3       0x1d c:/users/turbo9000/appdata/local/arduino15/packages/arduino/tools/arm-none-eabi-gcc/4.8.3-2014q1/bin/../lib/gcc/arm-none-eabi/4.8.3/armv7-m\libgcc.a(_aeabi_uldivmod.o)
 .ARM.attributes
                0x000009c0       0x2d c:/users/turbo9000/appdata/local/arduino15/packages/arduino/tools/arm-none-eabi-gcc/4.8.3-2014q1/bin/../lib/gcc/arm-none-eabi/4.8.3/armv7-m\libgcc.a(_fixdfdi.o)
 .ARM.attributes
                0x000009ed       0x2d c:/users/turbo9000/appdata/local/arduino15/packages/arduino/tools/arm-none-eabi-gcc/4.8.3-2014q1/bin/../lib/gcc/arm-none-eabi/4.8.3/armv7-m\libgcc.a(_fixunsdfdi.o)
 .ARM.attributes
                0x00000a1a       0x2d c:/users/turbo9000/appdata/local/arduino15/packages/arduino/tools/arm-none-eabi-gcc/4.8.3-2014q1/bin/../lib/gcc/arm-none-eabi/4.8.3/armv7-m\libgcc.a(bpabi.o)
 .ARM.attributes
                0x00000a47       0x1d c:/users/turbo9000/appdata/local/arduino15/packages/arduino/tools/arm-none-eabi-gcc/4.8.3-2014q1/bin/../lib/gcc/arm-none-eabi/4.8.3/armv7-m\libgcc.a(_dvmd_tls.o)
 .ARM.attributes
                0x00000a64       0x1d c:/users/turbo9000/appdata/local/arduino15/packages/arduino/tools/arm-none-eabi-gcc/4.8.3-2014q1/bin/../lib/gcc/arm-none-eabi/4.8.3/armv7-m\libgcc.a(_arm_fixunsdfsi.o)
 .ARM.attributes
                0x00000a81       0x2d c:/users/turbo9000/appdata/local/arduino15/packages/arduino/tools/arm-none-eabi-gcc/4.8.3-2014q1/bin/../lib/gcc/arm-none-eabi/4.8.3/armv7-m\libgcc.a(_divdi3.o)
 .ARM.attributes
                0x00000aae       0x2d c:/users/turbo9000/appdata/local/arduino15/packages/arduino/tools/arm-none-eabi-gcc/4.8.3-2014q1/bin/../lib/gcc/arm-none-eabi/4.8.3/armv7-m\libgcc.a(_udivdi3.o)
 .ARM.attributes
                0x00000adb       0x2d c:/users/turbo9000/appdata/local/arduino15/packages/arduino/tools/arm-none-eabi-gcc/4.8.3-2014q1/bin/../lib/gcc/arm-none-eabi/4.8.3/../../../../arm-none-eabi/lib/armv7-m\libc.a(lib_a-errno.o)
 .ARM.attributes
                0x00000b08       0x2d c:/users/turbo9000/appdata/local/arduino15/packages/arduino/tools/arm-none-eabi-gcc/4.8.3-2014q1/bin/../lib/gcc/arm-none-eabi/4.8.3/../../../../arm-none-eabi/lib/armv7-m\libc.a(lib_a-exit.o)
 .ARM.attributes
                0x00000b35       0x2d c:/users/turbo9000/appdata/local/arduino15/packages/arduino/tools/arm-none-eabi-gcc/4.8.3-2014q1/bin/../lib/gcc/arm-none-eabi/4.8.3/../../../../arm-none-eabi/lib/armv7-m\libc.a(lib_a-impure.o)
 .ARM.attributes
                0x00000b62       0x2d c:/users/turbo9000/appdata/local/arduino15/packages/arduino/tools/arm-none-eabi-gcc/4.8.3-2014q1/bin/../lib/gcc/arm-none-eabi/4.8.3/../../../../arm-none-eabi/lib/armv7-m\libc.a(lib_a-init.o)
 .ARM.attributes
                0x00000b8f       0x2d c:/users/turbo9000/appdata/local/arduino15/packages/arduino/tools/arm-none-eabi-gcc/4.8.3-2014q1/bin/../lib/gcc/arm-none-eabi/4.8.3/../../../../arm-none-eabi/lib/armv7-m\libc.a(lib_a-memset.o)
 .ARM.attributes
                0x00000bbc       0x2d c:/users/turbo9000/appdata/local/arduino15/packages/arduino/tools/arm-none-eabi-gcc/4.8.3-2014q1/bin/../lib/gcc/arm-none-eabi/4.8.3/../../../../arm-none-eabi/lib/armv7-m\libc.a(lib_a-strlen.o)
 .ARM.attributes
                0x00000be9       0x2d c:/users/turbo9000/appdata/local/arduino15/packages/arduino/tools/arm-none-eabi-gcc/4.8.3-2014q1/bin/../lib/gcc/arm-none-eabi/4.8.3/../../../../arm-none-eabi/lib/armv7-m\libc.a(lib_a-__call_atexit.o)
 .ARM.attributes
                0x00000c16       0x2d c:/users/turbo9000/appdata/local/arduino15/packages/arduino/tools/arm-none-eabi-gcc/4.8.3-2014q1/bin/../lib/gcc/arm-none-eabi/4.8.3/../../../../arm-none-eabi/lib/armv7-m\libc.a(lib_a-atexit.o)
 .ARM.attributes
                0x00000c43       0x2d c:/users/turbo9000/appdata/local/arduino15/packages/arduino/tools/arm-none-eabi-gcc/4.8.3-2014q1/bin/../lib/gcc/arm-none-eabi/4.8.3/../../../../arm-none-eabi/lib/armv7-m\libc.a(lib_a-fini.o)
 .ARM.attributes
                0x00000c70       0x2d c:/users/turbo9000/appdata/local/arduino15/packages/arduino/tools/arm-none-eabi-gcc/4.8.3-2014q1/bin/../lib/gcc/arm-none-eabi/4.8.3/../../../../arm-none-eabi/lib/armv7-m\libc.a(lib_a-__atexit.o)
 .ARM.attributes
                0x00000c9d       0x2d c:/users/turbo9000/appdata/local/arduino15/packages/arduino/tools/arm-none-eabi-gcc/4.8.3-2014q1/bin/../lib/gcc/arm-none-eabi/4.8.3/armv7-m/crtend.o
 .ARM.attributes
                0x00000cca       0x1d c:/users/turbo9000/appdata/local/arduino15/packages/arduino/tools/arm-none-eabi-gcc/4.8.3-2014q1/bin/../lib/gcc/arm-none-eabi/4.8.3/armv7-m/crtn.o

/DISCARD/
 *(.note.GNU-stack)
OUTPUT(C:\Users\TURBO9~1\AppData\Local\Temp\arduino_build_805463/blue_pill_keyboard.ino.elf elf32-littlearm)

.debug_ranges   0x00000000     0x1a88
 .debug_ranges  0x00000000      0x150 C:\Users\TURBO9~1\AppData\Local\Temp\arduino_build_805463\sketch\blue_pill_keyboard.ino.cpp.o
 .debug_ranges  0x00000150       0x38 C:\Users\TURBO9~1\AppData\Local\Temp\arduino_build_805463\core\board.cpp.o
 .debug_ranges  0x00000188      0x160 C:\Users\TURBO9~1\AppData\Local\Temp\arduino_build_805463\core\wirish\boards.cpp.o
 .debug_ranges  0x000002e8       0x48 C:\Users\TURBO9~1\AppData\Local\Temp\arduino_build_805463\core\wirish\boards_setup.cpp.o
 .debug_ranges  0x00000330       0x10 C:\Users\TURBO9~1\AppData\Local\Temp\arduino_build_805463\core\wirish\start_c.c.o
 .debug_ranges  0x00000340       0x78 C:\Users\TURBO9~1\AppData\Local\Temp\arduino_build_805463\core\wirish\syscalls.c.o
 .debug_ranges  0x000003b8       0x90 C:\Users\TURBO9~1\AppData\Local\Temp\arduino_cache_432467\core\core_487b1ced4e7b37e8d402730d0433b7e0.a(HardwareSerial.cpp.o)
 .debug_ranges  0x00000448      0x230 C:\Users\TURBO9~1\AppData\Local\Temp\arduino_cache_432467\core\core_487b1ced4e7b37e8d402730d0433b7e0.a(Print.cpp.o)
 .debug_ranges  0x00000678       0x10 C:\Users\TURBO9~1\AppData\Local\Temp\arduino_cache_432467\core\core_487b1ced4e7b37e8d402730d0433b7e0.a(cxxabi-compat.cpp.o)
 .debug_ranges  0x00000688       0x98 C:\Users\TURBO9~1\AppData\Local\Temp\arduino_cache_432467\core\core_487b1ced4e7b37e8d402730d0433b7e0.a(ext_interrupts.cpp.o)
 .debug_ranges  0x00000720       0x28 C:\Users\TURBO9~1\AppData\Local\Temp\arduino_cache_432467\core\core_487b1ced4e7b37e8d402730d0433b7e0.a(adc.c.o)
 .debug_ranges  0x00000748       0xb8 C:\Users\TURBO9~1\AppData\Local\Temp\arduino_cache_432467\core\core_487b1ced4e7b37e8d402730d0433b7e0.a(adc_f1.c.o)
 .debug_ranges  0x00000800      0x1b8 C:\Users\TURBO9~1\AppData\Local\Temp\arduino_cache_432467\core\core_487b1ced4e7b37e8d402730d0433b7e0.a(dma_f1.c.o)
 .debug_ranges  0x000009b8      0x150 C:\Users\TURBO9~1\AppData\Local\Temp\arduino_cache_432467\core\core_487b1ced4e7b37e8d402730d0433b7e0.a(exti.c.o)
 .debug_ranges  0x00000b08       0x10 C:\Users\TURBO9~1\AppData\Local\Temp\arduino_cache_432467\core\core_487b1ced4e7b37e8d402730d0433b7e0.a(exti_f1.c.o)
 .debug_ranges  0x00000b18       0x10 C:\Users\TURBO9~1\AppData\Local\Temp\arduino_cache_432467\core\core_487b1ced4e7b37e8d402730d0433b7e0.a(flash.c.o)
 .debug_ranges  0x00000b28       0x30 C:\Users\TURBO9~1\AppData\Local\Temp\arduino_cache_432467\core\core_487b1ced4e7b37e8d402730d0433b7e0.a(gpio_f1.c.o)
 .debug_ranges  0x00000b58       0x90 C:\Users\TURBO9~1\AppData\Local\Temp\arduino_cache_432467\core\core_487b1ced4e7b37e8d402730d0433b7e0.a(i2c_f1.c.o)
 .debug_ranges  0x00000be8       0x40 C:\Users\TURBO9~1\AppData\Local\Temp\arduino_cache_432467\core\core_487b1ced4e7b37e8d402730d0433b7e0.a(nvic.c.o)
 .debug_ranges  0x00000c28       0x98 C:\Users\TURBO9~1\AppData\Local\Temp\arduino_cache_432467\core\core_487b1ced4e7b37e8d402730d0433b7e0.a(rcc.c.o)
 .debug_ranges  0x00000cc0       0xc8 C:\Users\TURBO9~1\AppData\Local\Temp\arduino_cache_432467\core\core_487b1ced4e7b37e8d402730d0433b7e0.a(rcc_f1.c.o)
 .debug_ranges  0x00000d88       0x48 C:\Users\TURBO9~1\AppData\Local\Temp\arduino_cache_432467\core\core_487b1ced4e7b37e8d402730d0433b7e0.a(systick.c.o)
 .debug_ranges  0x00000dd0       0xe0 C:\Users\TURBO9~1\AppData\Local\Temp\arduino_cache_432467\core\core_487b1ced4e7b37e8d402730d0433b7e0.a(timer.c.o)
 .debug_ranges  0x00000eb0       0xd0 C:\Users\TURBO9~1\AppData\Local\Temp\arduino_cache_432467\core\core_487b1ced4e7b37e8d402730d0433b7e0.a(usart.c.o)
 .debug_ranges  0x00000f80       0x68 C:\Users\TURBO9~1\AppData\Local\Temp\arduino_cache_432467\core\core_487b1ced4e7b37e8d402730d0433b7e0.a(usart_f1.c.o)
 .debug_ranges  0x00000fe8       0x10 C:\Users\TURBO9~1\AppData\Local\Temp\arduino_cache_432467\core\core_487b1ced4e7b37e8d402730d0433b7e0.a(usart_private.c.o)
 .debug_ranges  0x00000ff8       0xa8 C:\Users\TURBO9~1\AppData\Local\Temp\arduino_cache_432467\core\core_487b1ced4e7b37e8d402730d0433b7e0.a(usb.c.o)
 .debug_ranges  0x000010a0      0x238 C:\Users\TURBO9~1\AppData\Local\Temp\arduino_cache_432467\core\core_487b1ced4e7b37e8d402730d0433b7e0.a(usb_cdcacm.c.o)
 .debug_ranges  0x000012d8       0x60 C:\Users\TURBO9~1\AppData\Local\Temp\arduino_cache_432467\core\core_487b1ced4e7b37e8d402730d0433b7e0.a(usb_reg_map.c.o)
 .debug_ranges  0x00001338       0xc0 C:\Users\TURBO9~1\AppData\Local\Temp\arduino_cache_432467\core\core_487b1ced4e7b37e8d402730d0433b7e0.a(usb_core.c.o)
 .debug_ranges  0x000013f8       0x10 C:\Users\TURBO9~1\AppData\Local\Temp\arduino_cache_432467\core\core_487b1ced4e7b37e8d402730d0433b7e0.a(usb_init.c.o)
 .debug_ranges  0x00001408       0x18 C:\Users\TURBO9~1\AppData\Local\Temp\arduino_cache_432467\core\core_487b1ced4e7b37e8d402730d0433b7e0.a(usb_mem.c.o)
 .debug_ranges  0x00001420      0x290 C:\Users\TURBO9~1\AppData\Local\Temp\arduino_cache_432467\core\core_487b1ced4e7b37e8d402730d0433b7e0.a(usb_regs.c.o)
 .debug_ranges  0x000016b0       0x58 C:\Users\TURBO9~1\AppData\Local\Temp\arduino_cache_432467\core\core_487b1ced4e7b37e8d402730d0433b7e0.a(util.c.o)
 .debug_ranges  0x00001708       0x18 C:\Users\TURBO9~1\AppData\Local\Temp\arduino_cache_432467\core\core_487b1ced4e7b37e8d402730d0433b7e0.a(main.cpp.o)
 .debug_ranges  0x00001720      0x158 C:\Users\TURBO9~1\AppData\Local\Temp\arduino_cache_432467\core\core_487b1ced4e7b37e8d402730d0433b7e0.a(usb_serial.cpp.o)
 .debug_ranges  0x00001878       0x20 C:\Users\TURBO9~1\AppData\Local\Temp\arduino_cache_432467\core\core_487b1ced4e7b37e8d402730d0433b7e0.a(wirish_time.cpp.o)
 .debug_ranges  0x00001898       0x10 C:\Users\TURBO9~1\AppData\Local\Temp\arduino_cache_432467\core\core_487b1ced4e7b37e8d402730d0433b7e0.a(hooks.c.o)
 .debug_ranges  0x000018a8       0x30 C:\Users\TURBO9~1\AppData\Local\Temp\arduino_cache_432467\core\core_487b1ced4e7b37e8d402730d0433b7e0.a(bkp_f1.c.o)
 .debug_ranges  0x000018d8       0x18 C:\Users\TURBO9~1\AppData\Local\Temp\arduino_cache_432467\core\core_487b1ced4e7b37e8d402730d0433b7e0.a(dma.c.o)
 .debug_ranges  0x000018f0       0x10 C:\Users\TURBO9~1\AppData\Local\Temp\arduino_cache_432467\core\core_487b1ced4e7b37e8d402730d0433b7e0.a(gpio.c.o)
 .debug_ranges  0x00001900      0x188 C:\Users\TURBO9~1\AppData\Local\Temp\arduino_cache_432467\core\core_487b1ced4e7b37e8d402730d0433b7e0.a(i2c.c.o)

.comment        0x00000000       0x70
 .comment       0x00000000       0x70 C:\Users\TURBO9~1\AppData\Local\Temp\arduino_build_805463\sketch\blue_pill_keyboard.ino.cpp.o
                                 0x71 (size before relaxing)
 .comment       0x00000000       0x71 C:\Users\TURBO9~1\AppData\Local\Temp\arduino_build_805463\core\board.cpp.o
 .comment       0x00000000       0x71 C:\Users\TURBO9~1\AppData\Local\Temp\arduino_build_805463\core\wirish\boards.cpp.o
 .comment       0x00000000       0x71 C:\Users\TURBO9~1\AppData\Local\Temp\arduino_build_805463\core\wirish\boards_setup.cpp.o
 .comment       0x00000000       0x71 C:\Users\TURBO9~1\AppData\Local\Temp\arduino_build_805463\core\wirish\start_c.c.o
 .comment       0x00000000       0x71 C:\Users\TURBO9~1\AppData\Local\Temp\arduino_build_805463\core\wirish\syscalls.c.o
 .comment       0x00000000       0x71 C:\Users\TURBO9~1\AppData\Local\Temp\arduino_cache_432467\core\core_487b1ced4e7b37e8d402730d0433b7e0.a(HardwareSerial.cpp.o)
 .comment       0x00000000       0x71 C:\Users\TURBO9~1\AppData\Local\Temp\arduino_cache_432467\core\core_487b1ced4e7b37e8d402730d0433b7e0.a(Print.cpp.o)
 .comment       0x00000000       0x71 C:\Users\TURBO9~1\AppData\Local\Temp\arduino_cache_432467\core\core_487b1ced4e7b37e8d402730d0433b7e0.a(cxxabi-compat.cpp.o)
 .comment       0x00000000       0x71 C:\Users\TURBO9~1\AppData\Local\Temp\arduino_cache_432467\core\core_487b1ced4e7b37e8d402730d0433b7e0.a(ext_interrupts.cpp.o)
 .comment       0x00000000       0x71 C:\Users\TURBO9~1\AppData\Local\Temp\arduino_cache_432467\core\core_487b1ced4e7b37e8d402730d0433b7e0.a(adc.c.o)
 .comment       0x00000000       0x71 C:\Users\TURBO9~1\AppData\Local\Temp\arduino_cache_432467\core\core_487b1ced4e7b37e8d402730d0433b7e0.a(adc_f1.c.o)
 .comment       0x00000000       0x71 C:\Users\TURBO9~1\AppData\Local\Temp\arduino_cache_432467\core\core_487b1ced4e7b37e8d402730d0433b7e0.a(dma_f1.c.o)
 .comment       0x00000000       0x71 C:\Users\TURBO9~1\AppData\Local\Temp\arduino_cache_432467\core\core_487b1ced4e7b37e8d402730d0433b7e0.a(exti.c.o)
 .comment       0x00000000       0x71 C:\Users\TURBO9~1\AppData\Local\Temp\arduino_cache_432467\core\core_487b1ced4e7b37e8d402730d0433b7e0.a(exti_f1.c.o)
 .comment       0x00000000       0x71 C:\Users\TURBO9~1\AppData\Local\Temp\arduino_cache_432467\core\core_487b1ced4e7b37e8d402730d0433b7e0.a(flash.c.o)
 .comment       0x00000000       0x71 C:\Users\TURBO9~1\AppData\Local\Temp\arduino_cache_432467\core\core_487b1ced4e7b37e8d402730d0433b7e0.a(gpio_f1.c.o)
 .comment       0x00000000       0x71 C:\Users\TURBO9~1\AppData\Local\Temp\arduino_cache_432467\core\core_487b1ced4e7b37e8d402730d0433b7e0.a(i2c_f1.c.o)
 .comment       0x00000000       0x71 C:\Users\TURBO9~1\AppData\Local\Temp\arduino_cache_432467\core\core_487b1ced4e7b37e8d402730d0433b7e0.a(nvic.c.o)
 .comment       0x00000000       0x71 C:\Users\TURBO9~1\AppData\Local\Temp\arduino_cache_432467\core\core_487b1ced4e7b37e8d402730d0433b7e0.a(rcc.c.o)
 .comment       0x00000000       0x71 C:\Users\TURBO9~1\AppData\Local\Temp\arduino_cache_432467\core\core_487b1ced4e7b37e8d402730d0433b7e0.a(rcc_f1.c.o)
 .comment       0x00000000       0x71 C:\Users\TURBO9~1\AppData\Local\Temp\arduino_cache_432467\core\core_487b1ced4e7b37e8d402730d0433b7e0.a(systick.c.o)
 .comment       0x00000000       0x71 C:\Users\TURBO9~1\AppData\Local\Temp\arduino_cache_432467\core\core_487b1ced4e7b37e8d402730d0433b7e0.a(timer.c.o)
 .comment       0x00000000       0x71 C:\Users\TURBO9~1\AppData\Local\Temp\arduino_cache_432467\core\core_487b1ced4e7b37e8d402730d0433b7e0.a(usart.c.o)
 .comment       0x00000000       0x71 C:\Users\TURBO9~1\AppData\Local\Temp\arduino_cache_432467\core\core_487b1ced4e7b37e8d402730d0433b7e0.a(usart_f1.c.o)
 .comment       0x00000000       0x71 C:\Users\TURBO9~1\AppData\Local\Temp\arduino_cache_432467\core\core_487b1ced4e7b37e8d402730d0433b7e0.a(usart_private.c.o)
 .comment       0x00000000       0x71 C:\Users\TURBO9~1\AppData\Local\Temp\arduino_cache_432467\core\core_487b1ced4e7b37e8d402730d0433b7e0.a(usb.c.o)
 .comment       0x00000000       0x71 C:\Users\TURBO9~1\AppData\Local\Temp\arduino_cache_432467\core\core_487b1ced4e7b37e8d402730d0433b7e0.a(usb_cdcacm.c.o)
 .comment       0x00000000       0x71 C:\Users\TURBO9~1\AppData\Local\Temp\arduino_cache_432467\core\core_487b1ced4e7b37e8d402730d0433b7e0.a(usb_reg_map.c.o)
 .comment       0x00000000       0x71 C:\Users\TURBO9~1\AppData\Local\Temp\arduino_cache_432467\core\core_487b1ced4e7b37e8d402730d0433b7e0.a(usb_core.c.o)
 .comment       0x00000000       0x71 C:\Users\TURBO9~1\AppData\Local\Temp\arduino_cache_432467\core\core_487b1ced4e7b37e8d402730d0433b7e0.a(usb_init.c.o)
 .comment       0x00000000       0x71 C:\Users\TURBO9~1\AppData\Local\Temp\arduino_cache_432467\core\core_487b1ced4e7b37e8d402730d0433b7e0.a(usb_mem.c.o)
 .comment       0x00000000       0x71 C:\Users\TURBO9~1\AppData\Local\Temp\arduino_cache_432467\core\core_487b1ced4e7b37e8d402730d0433b7e0.a(usb_regs.c.o)
 .comment       0x00000000       0x71 C:\Users\TURBO9~1\AppData\Local\Temp\arduino_cache_432467\core\core_487b1ced4e7b37e8d402730d0433b7e0.a(util.c.o)
 .comment       0x00000000       0x71 C:\Users\TURBO9~1\AppData\Local\Temp\arduino_cache_432467\core\core_487b1ced4e7b37e8d402730d0433b7e0.a(main.cpp.o)
 .comment       0x00000000       0x71 C:\Users\TURBO9~1\AppData\Local\Temp\arduino_cache_432467\core\core_487b1ced4e7b37e8d402730d0433b7e0.a(usb_serial.cpp.o)
 .comment       0x00000000       0x71 C:\Users\TURBO9~1\AppData\Local\Temp\arduino_cache_432467\core\core_487b1ced4e7b37e8d402730d0433b7e0.a(wirish_time.cpp.o)
 .comment       0x00000000       0x71 C:\Users\TURBO9~1\AppData\Local\Temp\arduino_cache_432467\core\core_487b1ced4e7b37e8d402730d0433b7e0.a(hooks.c.o)
 .comment       0x00000000       0x71 C:\Users\TURBO9~1\AppData\Local\Temp\arduino_cache_432467\core\core_487b1ced4e7b37e8d402730d0433b7e0.a(bkp_f1.c.o)
 .comment       0x00000000       0x71 C:\Users\TURBO9~1\AppData\Local\Temp\arduino_cache_432467\core\core_487b1ced4e7b37e8d402730d0433b7e0.a(dma.c.o)
 .comment       0x00000000       0x71 C:\Users\TURBO9~1\AppData\Local\Temp\arduino_cache_432467\core\core_487b1ced4e7b37e8d402730d0433b7e0.a(gpio.c.o)
 .comment       0x00000000       0x71 C:\Users\TURBO9~1\AppData\Local\Temp\arduino_cache_432467\core\core_487b1ced4e7b37e8d402730d0433b7e0.a(i2c.c.o)

Cross Reference Table

Symbol                                            File
ACKtimeout                                        C:\Users\TURBO9~1\AppData\Local\Temp\arduino_build_805463\sketch\blue_pill_keyboard.ino.cpp.o
ADC1                                              C:\Users\TURBO9~1\AppData\Local\Temp\arduino_cache_432467\core\core_487b1ced4e7b37e8d402730d0433b7e0.a(adc_f1.c.o)
ADC2                                              C:\Users\TURBO9~1\AppData\Local\Temp\arduino_cache_432467\core\core_487b1ced4e7b37e8d402730d0433b7e0.a(adc_f1.c.o)
BKP                                               C:\Users\TURBO9~1\AppData\Local\Temp\arduino_cache_432467\core\core_487b1ced4e7b37e8d402730d0433b7e0.a(bkp_f1.c.o)
ByteSwap                                          C:\Users\TURBO9~1\AppData\Local\Temp\arduino_cache_432467\core\core_487b1ced4e7b37e8d402730d0433b7e0.a(usb_regs.c.o)
ClearDTOG_RX                                      C:\Users\TURBO9~1\AppData\Local\Temp\arduino_cache_432467\core\core_487b1ced4e7b37e8d402730d0433b7e0.a(usb_regs.c.o)
                                                  C:\Users\TURBO9~1\AppData\Local\Temp\arduino_cache_432467\core\core_487b1ced4e7b37e8d402730d0433b7e0.a(usb_core.c.o)
ClearDTOG_TX                                      C:\Users\TURBO9~1\AppData\Local\Temp\arduino_cache_432467\core\core_487b1ced4e7b37e8d402730d0433b7e0.a(usb_regs.c.o)
                                                  C:\Users\TURBO9~1\AppData\Local\Temp\arduino_cache_432467\core\core_487b1ced4e7b37e8d402730d0433b7e0.a(usb_core.c.o)
ClearEPDoubleBuff                                 C:\Users\TURBO9~1\AppData\Local\Temp\arduino_cache_432467\core\core_487b1ced4e7b37e8d402730d0433b7e0.a(usb_regs.c.o)
ClearEP_CTR_RX                                    C:\Users\TURBO9~1\AppData\Local\Temp\arduino_cache_432467\core\core_487b1ced4e7b37e8d402730d0433b7e0.a(usb_regs.c.o)
ClearEP_CTR_TX                                    C:\Users\TURBO9~1\AppData\Local\Temp\arduino_cache_432467\core\core_487b1ced4e7b37e8d402730d0433b7e0.a(usb_regs.c.o)
ClearEP_KIND                                      C:\Users\TURBO9~1\AppData\Local\Temp\arduino_cache_432467\core\core_487b1ced4e7b37e8d402730d0433b7e0.a(usb_regs.c.o)
Clear_Status_Out                                  C:\Users\TURBO9~1\AppData\Local\Temp\arduino_cache_432467\core\core_487b1ced4e7b37e8d402730d0433b7e0.a(usb_regs.c.o)
DMA1                                              C:\Users\TURBO9~1\AppData\Local\Temp\arduino_cache_432467\core\core_487b1ced4e7b37e8d402730d0433b7e0.a(dma_f1.c.o)
Data_Mul_MaxPacketSize                            C:\Users\TURBO9~1\AppData\Local\Temp\arduino_cache_432467\core\core_487b1ced4e7b37e8d402730d0433b7e0.a(usb_core.c.o)
Device_Info                                       C:\Users\TURBO9~1\AppData\Local\Temp\arduino_cache_432467\core\core_487b1ced4e7b37e8d402730d0433b7e0.a(usb_init.c.o)
                                                  C:\Users\TURBO9~1\AppData\Local\Temp\arduino_cache_432467\core\core_487b1ced4e7b37e8d402730d0433b7e0.a(usb.c.o)
Device_Property                                   C:\Users\TURBO9~1\AppData\Local\Temp\arduino_cache_432467\core\core_487b1ced4e7b37e8d402730d0433b7e0.a(usb_cdcacm.c.o)
                                                  C:\Users\TURBO9~1\AppData\Local\Temp\arduino_cache_432467\core\core_487b1ced4e7b37e8d402730d0433b7e0.a(usb_init.c.o)
                                                  C:\Users\TURBO9~1\AppData\Local\Temp\arduino_cache_432467\core\core_487b1ced4e7b37e8d402730d0433b7e0.a(usb_core.c.o)
                                                  C:\Users\TURBO9~1\AppData\Local\Temp\arduino_cache_432467\core\core_487b1ced4e7b37e8d402730d0433b7e0.a(usb.c.o)
Device_Table                                      C:\Users\TURBO9~1\AppData\Local\Temp\arduino_cache_432467\core\core_487b1ced4e7b37e8d402730d0433b7e0.a(usb_cdcacm.c.o)
                                                  C:\Users\TURBO9~1\AppData\Local\Temp\arduino_cache_432467\core\core_487b1ced4e7b37e8d402730d0433b7e0.a(usb_core.c.o)
EPindex                                           C:\Users\TURBO9~1\AppData\Local\Temp\arduino_cache_432467\core\core_487b1ced4e7b37e8d402730d0433b7e0.a(usb_init.c.o)
FreeUserBuffer                                    C:\Users\TURBO9~1\AppData\Local\Temp\arduino_cache_432467\core\core_487b1ced4e7b37e8d402730d0433b7e0.a(usb_regs.c.o)
GPIOA                                             C:\Users\TURBO9~1\AppData\Local\Temp\arduino_cache_432467\core\core_487b1ced4e7b37e8d402730d0433b7e0.a(gpio_f1.c.o)
                                                  C:\Users\TURBO9~1\AppData\Local\Temp\arduino_build_805463\sketch\blue_pill_keyboard.ino.cpp.o
GPIOB                                             C:\Users\TURBO9~1\AppData\Local\Temp\arduino_cache_432467\core\core_487b1ced4e7b37e8d402730d0433b7e0.a(gpio_f1.c.o)
                                                  C:\Users\TURBO9~1\AppData\Local\Temp\arduino_build_805463\sketch\blue_pill_keyboard.ino.cpp.o
GPIOC                                             C:\Users\TURBO9~1\AppData\Local\Temp\arduino_cache_432467\core\core_487b1ced4e7b37e8d402730d0433b7e0.a(gpio_f1.c.o)
                                                  C:\Users\TURBO9~1\AppData\Local\Temp\arduino_cache_432467\core\core_487b1ced4e7b37e8d402730d0433b7e0.a(util.c.o)
GPIOD                                             C:\Users\TURBO9~1\AppData\Local\Temp\arduino_cache_432467\core\core_487b1ced4e7b37e8d402730d0433b7e0.a(gpio_f1.c.o)
GetBTABLE                                         C:\Users\TURBO9~1\AppData\Local\Temp\arduino_cache_432467\core\core_487b1ced4e7b37e8d402730d0433b7e0.a(usb_regs.c.o)
GetCNTR                                           C:\Users\TURBO9~1\AppData\Local\Temp\arduino_cache_432467\core\core_487b1ced4e7b37e8d402730d0433b7e0.a(usb_regs.c.o)
GetDADDR                                          C:\Users\TURBO9~1\AppData\Local\Temp\arduino_cache_432467\core\core_487b1ced4e7b37e8d402730d0433b7e0.a(usb_regs.c.o)
GetENDPOINT                                       C:\Users\TURBO9~1\AppData\Local\Temp\arduino_cache_432467\core\core_487b1ced4e7b37e8d402730d0433b7e0.a(usb_regs.c.o)
GetEPAddress                                      C:\Users\TURBO9~1\AppData\Local\Temp\arduino_cache_432467\core\core_487b1ced4e7b37e8d402730d0433b7e0.a(usb_regs.c.o)
GetEPDblBuf0Addr                                  C:\Users\TURBO9~1\AppData\Local\Temp\arduino_cache_432467\core\core_487b1ced4e7b37e8d402730d0433b7e0.a(usb_regs.c.o)
GetEPDblBuf0Count                                 C:\Users\TURBO9~1\AppData\Local\Temp\arduino_cache_432467\core\core_487b1ced4e7b37e8d402730d0433b7e0.a(usb_regs.c.o)
GetEPDblBuf1Addr                                  C:\Users\TURBO9~1\AppData\Local\Temp\arduino_cache_432467\core\core_487b1ced4e7b37e8d402730d0433b7e0.a(usb_regs.c.o)
GetEPDblBuf1Count                                 C:\Users\TURBO9~1\AppData\Local\Temp\arduino_cache_432467\core\core_487b1ced4e7b37e8d402730d0433b7e0.a(usb_regs.c.o)
GetEPDblBufDir                                    C:\Users\TURBO9~1\AppData\Local\Temp\arduino_cache_432467\core\core_487b1ced4e7b37e8d402730d0433b7e0.a(usb_regs.c.o)
GetEPRxAddr                                       C:\Users\TURBO9~1\AppData\Local\Temp\arduino_cache_432467\core\core_487b1ced4e7b37e8d402730d0433b7e0.a(usb_regs.c.o)
                                                  C:\Users\TURBO9~1\AppData\Local\Temp\arduino_cache_432467\core\core_487b1ced4e7b37e8d402730d0433b7e0.a(usb_core.c.o)
GetEPRxCount                                      C:\Users\TURBO9~1\AppData\Local\Temp\arduino_cache_432467\core\core_487b1ced4e7b37e8d402730d0433b7e0.a(usb_regs.c.o)
GetEPRxStatus                                     C:\Users\TURBO9~1\AppData\Local\Temp\arduino_cache_432467\core\core_487b1ced4e7b37e8d402730d0433b7e0.a(usb_regs.c.o)
GetEPTxAddr                                       C:\Users\TURBO9~1\AppData\Local\Temp\arduino_cache_432467\core\core_487b1ced4e7b37e8d402730d0433b7e0.a(usb_regs.c.o)
                                                  C:\Users\TURBO9~1\AppData\Local\Temp\arduino_cache_432467\core\core_487b1ced4e7b37e8d402730d0433b7e0.a(usb_core.c.o)
GetEPTxCount                                      C:\Users\TURBO9~1\AppData\Local\Temp\arduino_cache_432467\core\core_487b1ced4e7b37e8d402730d0433b7e0.a(usb_regs.c.o)
GetEPTxStatus                                     C:\Users\TURBO9~1\AppData\Local\Temp\arduino_cache_432467\core\core_487b1ced4e7b37e8d402730d0433b7e0.a(usb_regs.c.o)
GetEPType                                         C:\Users\TURBO9~1\AppData\Local\Temp\arduino_cache_432467\core\core_487b1ced4e7b37e8d402730d0433b7e0.a(usb_regs.c.o)
GetFNR                                            C:\Users\TURBO9~1\AppData\Local\Temp\arduino_cache_432467\core\core_487b1ced4e7b37e8d402730d0433b7e0.a(usb_regs.c.o)
GetISTR                                           C:\Users\TURBO9~1\AppData\Local\Temp\arduino_cache_432467\core\core_487b1ced4e7b37e8d402730d0433b7e0.a(usb_regs.c.o)
GetRxStallStatus                                  C:\Users\TURBO9~1\AppData\Local\Temp\arduino_cache_432467\core\core_487b1ced4e7b37e8d402730d0433b7e0.a(usb_regs.c.o)
GetTxStallStatus                                  C:\Users\TURBO9~1\AppData\Local\Temp\arduino_cache_432467\core\core_487b1ced4e7b37e8d402730d0433b7e0.a(usb_regs.c.o)
HardwareSerial::HardwareSerial(usart_dev*, unsigned char, unsigned char) C:\Users\TURBO9~1\AppData\Local\Temp\arduino_cache_432467\core\core_487b1ced4e7b37e8d402730d0433b7e0.a(HardwareSerial.cpp.o)
                                                  C:\Users\TURBO9~1\AppData\Local\Temp\arduino_build_805463\core\board.cpp.o
HardwareSerial::HardwareSerial(usart_dev*, unsigned char, unsigned char) C:\Users\TURBO9~1\AppData\Local\Temp\arduino_cache_432467\core\core_487b1ced4e7b37e8d402730d0433b7e0.a(HardwareSerial.cpp.o)
HardwareSerial::available()                       C:\Users\TURBO9~1\AppData\Local\Temp\arduino_cache_432467\core\core_487b1ced4e7b37e8d402730d0433b7e0.a(HardwareSerial.cpp.o)
HardwareSerial::availableForWrite()               C:\Users\TURBO9~1\AppData\Local\Temp\arduino_cache_432467\core\core_487b1ced4e7b37e8d402730d0433b7e0.a(HardwareSerial.cpp.o)
HardwareSerial::begin(unsigned long)              C:\Users\TURBO9~1\AppData\Local\Temp\arduino_cache_432467\core\core_487b1ced4e7b37e8d402730d0433b7e0.a(HardwareSerial.cpp.o)
HardwareSerial::begin(unsigned long, unsigned char) C:\Users\TURBO9~1\AppData\Local\Temp\arduino_cache_432467\core\core_487b1ced4e7b37e8d402730d0433b7e0.a(HardwareSerial.cpp.o)
HardwareSerial::end()                             C:\Users\TURBO9~1\AppData\Local\Temp\arduino_cache_432467\core\core_487b1ced4e7b37e8d402730d0433b7e0.a(HardwareSerial.cpp.o)
HardwareSerial::flush()                           C:\Users\TURBO9~1\AppData\Local\Temp\arduino_cache_432467\core\core_487b1ced4e7b37e8d402730d0433b7e0.a(HardwareSerial.cpp.o)
HardwareSerial::peek()                            C:\Users\TURBO9~1\AppData\Local\Temp\arduino_cache_432467\core\core_487b1ced4e7b37e8d402730d0433b7e0.a(HardwareSerial.cpp.o)
HardwareSerial::read()                            C:\Users\TURBO9~1\AppData\Local\Temp\arduino_cache_432467\core\core_487b1ced4e7b37e8d402730d0433b7e0.a(HardwareSerial.cpp.o)
HardwareSerial::write(unsigned char)              C:\Users\TURBO9~1\AppData\Local\Temp\arduino_cache_432467\core\core_487b1ced4e7b37e8d402730d0433b7e0.a(HardwareSerial.cpp.o)
I2C1                                              C:\Users\TURBO9~1\AppData\Local\Temp\arduino_cache_432467\core\core_487b1ced4e7b37e8d402730d0433b7e0.a(i2c_f1.c.o)
                                                  C:\Users\TURBO9~1\AppData\Local\Temp\arduino_cache_432467\core\core_487b1ced4e7b37e8d402730d0433b7e0.a(i2c.c.o)
I2C2                                              C:\Users\TURBO9~1\AppData\Local\Temp\arduino_cache_432467\core\core_487b1ced4e7b37e8d402730d0433b7e0.a(i2c_f1.c.o)
In0_Process                                       C:\Users\TURBO9~1\AppData\Local\Temp\arduino_cache_432467\core\core_487b1ced4e7b37e8d402730d0433b7e0.a(usb_core.c.o)
                                                  C:\Users\TURBO9~1\AppData\Local\Temp\arduino_cache_432467\core\core_487b1ced4e7b37e8d402730d0433b7e0.a(usb.c.o)
LEDstatusByte                                     C:\Users\TURBO9~1\AppData\Local\Temp\arduino_build_805463\sketch\blue_pill_keyboard.ino.cpp.o
LEDstatusIncoming                                 C:\Users\TURBO9~1\AppData\Local\Temp\arduino_build_805463\sketch\blue_pill_keyboard.ino.cpp.o
Listen_To_Sega()                                  C:\Users\TURBO9~1\AppData\Local\Temp\arduino_build_805463\sketch\blue_pill_keyboard.ino.cpp.o
NOP_Process                                       C:\Users\TURBO9~1\AppData\Local\Temp\arduino_cache_432467\core\core_487b1ced4e7b37e8d402730d0433b7e0.a(usb_core.c.o)
                                                  C:\Users\TURBO9~1\AppData\Local\Temp\arduino_cache_432467\core\core_487b1ced4e7b37e8d402730d0433b7e0.a(usb_cdcacm.c.o)
Out0_Process                                      C:\Users\TURBO9~1\AppData\Local\Temp\arduino_cache_432467\core\core_487b1ced4e7b37e8d402730d0433b7e0.a(usb_core.c.o)
                                                  C:\Users\TURBO9~1\AppData\Local\Temp\arduino_cache_432467\core\core_487b1ced4e7b37e8d402730d0433b7e0.a(usb.c.o)
PIN_MAP                                           C:\Users\TURBO9~1\AppData\Local\Temp\arduino_build_805463\core\board.cpp.o
                                                  C:\Users\TURBO9~1\AppData\Local\Temp\arduino_cache_432467\core\core_487b1ced4e7b37e8d402730d0433b7e0.a(ext_interrupts.cpp.o)
                                                  C:\Users\TURBO9~1\AppData\Local\Temp\arduino_cache_432467\core\core_487b1ced4e7b37e8d402730d0433b7e0.a(HardwareSerial.cpp.o)
                                                  C:\Users\TURBO9~1\AppData\Local\Temp\arduino_build_805463\core\wirish\boards_setup.cpp.o
PMAToUserBufferCopy                               C:\Users\TURBO9~1\AppData\Local\Temp\arduino_cache_432467\core\core_487b1ced4e7b37e8d402730d0433b7e0.a(usb_mem.c.o)
                                                  C:\Users\TURBO9~1\AppData\Local\Temp\arduino_cache_432467\core\core_487b1ced4e7b37e8d402730d0433b7e0.a(usb_core.c.o)
PS2busy                                           C:\Users\TURBO9~1\AppData\Local\Temp\arduino_build_805463\sketch\blue_pill_keyboard.ino.cpp.o
Post0_Process                                     C:\Users\TURBO9~1\AppData\Local\Temp\arduino_cache_432467\core\core_487b1ced4e7b37e8d402730d0433b7e0.a(usb_core.c.o)
Print::print(Printable const&)                    C:\Users\TURBO9~1\AppData\Local\Temp\arduino_cache_432467\core\core_487b1ced4e7b37e8d402730d0433b7e0.a(Print.cpp.o)
Print::print(String const&)                       C:\Users\TURBO9~1\AppData\Local\Temp\arduino_cache_432467\core\core_487b1ced4e7b37e8d402730d0433b7e0.a(Print.cpp.o)
Print::print(__FlashStringHelper const*)          C:\Users\TURBO9~1\AppData\Local\Temp\arduino_cache_432467\core\core_487b1ced4e7b37e8d402730d0433b7e0.a(Print.cpp.o)
Print::print(char const*)                         C:\Users\TURBO9~1\AppData\Local\Temp\arduino_cache_432467\core\core_487b1ced4e7b37e8d402730d0433b7e0.a(Print.cpp.o)
Print::print(char)                                C:\Users\TURBO9~1\AppData\Local\Temp\arduino_cache_432467\core\core_487b1ced4e7b37e8d402730d0433b7e0.a(Print.cpp.o)
Print::print(double, int)                         C:\Users\TURBO9~1\AppData\Local\Temp\arduino_cache_432467\core\core_487b1ced4e7b37e8d402730d0433b7e0.a(Print.cpp.o)
Print::print(int, int)                            C:\Users\TURBO9~1\AppData\Local\Temp\arduino_cache_432467\core\core_487b1ced4e7b37e8d402730d0433b7e0.a(Print.cpp.o)
Print::print(long long, int)                      C:\Users\TURBO9~1\AppData\Local\Temp\arduino_cache_432467\core\core_487b1ced4e7b37e8d402730d0433b7e0.a(Print.cpp.o)
Print::print(long, int)                           C:\Users\TURBO9~1\AppData\Local\Temp\arduino_cache_432467\core\core_487b1ced4e7b37e8d402730d0433b7e0.a(Print.cpp.o)
Print::print(unsigned char, int)                  C:\Users\TURBO9~1\AppData\Local\Temp\arduino_cache_432467\core\core_487b1ced4e7b37e8d402730d0433b7e0.a(Print.cpp.o)
Print::print(unsigned int, int)                   C:\Users\TURBO9~1\AppData\Local\Temp\arduino_cache_432467\core\core_487b1ced4e7b37e8d402730d0433b7e0.a(Print.cpp.o)
Print::print(unsigned long long, int)             C:\Users\TURBO9~1\AppData\Local\Temp\arduino_cache_432467\core\core_487b1ced4e7b37e8d402730d0433b7e0.a(Print.cpp.o)
Print::print(unsigned long, int)                  C:\Users\TURBO9~1\AppData\Local\Temp\arduino_cache_432467\core\core_487b1ced4e7b37e8d402730d0433b7e0.a(Print.cpp.o)
Print::printFloat(double, unsigned char)          C:\Users\TURBO9~1\AppData\Local\Temp\arduino_cache_432467\core\core_487b1ced4e7b37e8d402730d0433b7e0.a(Print.cpp.o)
Print::printNumber(unsigned long long, unsigned char) C:\Users\TURBO9~1\AppData\Local\Temp\arduino_cache_432467\core\core_487b1ced4e7b37e8d402730d0433b7e0.a(Print.cpp.o)
Print::println()                                  C:\Users\TURBO9~1\AppData\Local\Temp\arduino_cache_432467\core\core_487b1ced4e7b37e8d402730d0433b7e0.a(Print.cpp.o)
Print::println(Printable const&)                  C:\Users\TURBO9~1\AppData\Local\Temp\arduino_cache_432467\core\core_487b1ced4e7b37e8d402730d0433b7e0.a(Print.cpp.o)
Print::println(String const&)                     C:\Users\TURBO9~1\AppData\Local\Temp\arduino_cache_432467\core\core_487b1ced4e7b37e8d402730d0433b7e0.a(Print.cpp.o)
Print::println(__FlashStringHelper const*)        C:\Users\TURBO9~1\AppData\Local\Temp\arduino_cache_432467\core\core_487b1ced4e7b37e8d402730d0433b7e0.a(Print.cpp.o)
Print::println(char const*)                       C:\Users\TURBO9~1\AppData\Local\Temp\arduino_cache_432467\core\core_487b1ced4e7b37e8d402730d0433b7e0.a(Print.cpp.o)
Print::println(char)                              C:\Users\TURBO9~1\AppData\Local\Temp\arduino_cache_432467\core\core_487b1ced4e7b37e8d402730d0433b7e0.a(Print.cpp.o)
Print::println(double, int)                       C:\Users\TURBO9~1\AppData\Local\Temp\arduino_cache_432467\core\core_487b1ced4e7b37e8d402730d0433b7e0.a(Print.cpp.o)
Print::println(int, int)                          C:\Users\TURBO9~1\AppData\Local\Temp\arduino_cache_432467\core\core_487b1ced4e7b37e8d402730d0433b7e0.a(Print.cpp.o)
Print::println(long long, int)                    C:\Users\TURBO9~1\AppData\Local\Temp\arduino_cache_432467\core\core_487b1ced4e7b37e8d402730d0433b7e0.a(Print.cpp.o)
Print::println(long, int)                         C:\Users\TURBO9~1\AppData\Local\Temp\arduino_cache_432467\core\core_487b1ced4e7b37e8d402730d0433b7e0.a(Print.cpp.o)
Print::println(unsigned char, int)                C:\Users\TURBO9~1\AppData\Local\Temp\arduino_cache_432467\core\core_487b1ced4e7b37e8d402730d0433b7e0.a(Print.cpp.o)
Print::println(unsigned int, int)                 C:\Users\TURBO9~1\AppData\Local\Temp\arduino_cache_432467\core\core_487b1ced4e7b37e8d402730d0433b7e0.a(Print.cpp.o)
Print::println(unsigned long long, int)           C:\Users\TURBO9~1\AppData\Local\Temp\arduino_cache_432467\core\core_487b1ced4e7b37e8d402730d0433b7e0.a(Print.cpp.o)
Print::println(unsigned long, int)                C:\Users\TURBO9~1\AppData\Local\Temp\arduino_cache_432467\core\core_487b1ced4e7b37e8d402730d0433b7e0.a(Print.cpp.o)
Print::write(char const*)                         C:\Users\TURBO9~1\AppData\Local\Temp\arduino_cache_432467\core\core_487b1ced4e7b37e8d402730d0433b7e0.a(Print.cpp.o)
                                                  C:\Users\TURBO9~1\AppData\Local\Temp\arduino_cache_432467\core\core_487b1ced4e7b37e8d402730d0433b7e0.a(usb_serial.cpp.o)
                                                  C:\Users\TURBO9~1\AppData\Local\Temp\arduino_cache_432467\core\core_487b1ced4e7b37e8d402730d0433b7e0.a(HardwareSerial.cpp.o)
Print::write(void const*, unsigned long)          C:\Users\TURBO9~1\AppData\Local\Temp\arduino_cache_432467\core\core_487b1ced4e7b37e8d402730d0433b7e0.a(Print.cpp.o)
                                                  C:\Users\TURBO9~1\AppData\Local\Temp\arduino_cache_432467\core\core_487b1ced4e7b37e8d402730d0433b7e0.a(usb_serial.cpp.o)
                                                  C:\Users\TURBO9~1\AppData\Local\Temp\arduino_cache_432467\core\core_487b1ced4e7b37e8d402730d0433b7e0.a(HardwareSerial.cpp.o)
ResumeS                                           C:\Users\TURBO9~1\AppData\Local\Temp\arduino_cache_432467\core\core_487b1ced4e7b37e8d402730d0433b7e0.a(usb.c.o)
SaveRState                                        C:\Users\TURBO9~1\AppData\Local\Temp\arduino_cache_432467\core\core_487b1ced4e7b37e8d402730d0433b7e0.a(usb_core.c.o)
                                                  C:\Users\TURBO9~1\AppData\Local\Temp\arduino_cache_432467\core\core_487b1ced4e7b37e8d402730d0433b7e0.a(usb.c.o)
SaveState                                         C:\Users\TURBO9~1\AppData\Local\Temp\arduino_cache_432467\core\core_487b1ced4e7b37e8d402730d0433b7e0.a(usb_init.c.o)
SaveTState                                        C:\Users\TURBO9~1\AppData\Local\Temp\arduino_cache_432467\core\core_487b1ced4e7b37e8d402730d0433b7e0.a(usb_core.c.o)
                                                  C:\Users\TURBO9~1\AppData\Local\Temp\arduino_cache_432467\core\core_487b1ced4e7b37e8d402730d0433b7e0.a(usb.c.o)
Serial                                            C:\Users\TURBO9~1\AppData\Local\Temp\arduino_cache_432467\core\core_487b1ced4e7b37e8d402730d0433b7e0.a(usb_serial.cpp.o)
                                                  C:\Users\TURBO9~1\AppData\Local\Temp\arduino_build_805463\core\wirish\boards_setup.cpp.o
Serial1                                           C:\Users\TURBO9~1\AppData\Local\Temp\arduino_build_805463\core\board.cpp.o
Serial2                                           C:\Users\TURBO9~1\AppData\Local\Temp\arduino_build_805463\core\board.cpp.o
Serial3                                           C:\Users\TURBO9~1\AppData\Local\Temp\arduino_build_805463\core\board.cpp.o
SetBTABLE                                         C:\Users\TURBO9~1\AppData\Local\Temp\arduino_cache_432467\core\core_487b1ced4e7b37e8d402730d0433b7e0.a(usb_regs.c.o)
SetCNTR                                           C:\Users\TURBO9~1\AppData\Local\Temp\arduino_cache_432467\core\core_487b1ced4e7b37e8d402730d0433b7e0.a(usb_regs.c.o)
SetDADDR                                          C:\Users\TURBO9~1\AppData\Local\Temp\arduino_cache_432467\core\core_487b1ced4e7b37e8d402730d0433b7e0.a(usb_regs.c.o)
SetDeviceAddress                                  C:\Users\TURBO9~1\AppData\Local\Temp\arduino_cache_432467\core\core_487b1ced4e7b37e8d402730d0433b7e0.a(usb_core.c.o)
                                                  C:\Users\TURBO9~1\AppData\Local\Temp\arduino_cache_432467\core\core_487b1ced4e7b37e8d402730d0433b7e0.a(usb_cdcacm.c.o)
SetDouBleBuffEPStall                              C:\Users\TURBO9~1\AppData\Local\Temp\arduino_cache_432467\core\core_487b1ced4e7b37e8d402730d0433b7e0.a(usb_regs.c.o)
SetENDPOINT                                       C:\Users\TURBO9~1\AppData\Local\Temp\arduino_cache_432467\core\core_487b1ced4e7b37e8d402730d0433b7e0.a(usb_regs.c.o)
SetEPAddress                                      C:\Users\TURBO9~1\AppData\Local\Temp\arduino_cache_432467\core\core_487b1ced4e7b37e8d402730d0433b7e0.a(usb_regs.c.o)
SetEPCountRxReg                                   C:\Users\TURBO9~1\AppData\Local\Temp\arduino_cache_432467\core\core_487b1ced4e7b37e8d402730d0433b7e0.a(usb_regs.c.o)
SetEPDblBuf0Addr                                  C:\Users\TURBO9~1\AppData\Local\Temp\arduino_cache_432467\core\core_487b1ced4e7b37e8d402730d0433b7e0.a(usb_regs.c.o)
SetEPDblBuf0Count                                 C:\Users\TURBO9~1\AppData\Local\Temp\arduino_cache_432467\core\core_487b1ced4e7b37e8d402730d0433b7e0.a(usb_regs.c.o)
SetEPDblBuf1Addr                                  C:\Users\TURBO9~1\AppData\Local\Temp\arduino_cache_432467\core\core_487b1ced4e7b37e8d402730d0433b7e0.a(usb_regs.c.o)
SetEPDblBuf1Count                                 C:\Users\TURBO9~1\AppData\Local\Temp\arduino_cache_432467\core\core_487b1ced4e7b37e8d402730d0433b7e0.a(usb_regs.c.o)
SetEPDblBuffAddr                                  C:\Users\TURBO9~1\AppData\Local\Temp\arduino_cache_432467\core\core_487b1ced4e7b37e8d402730d0433b7e0.a(usb_regs.c.o)
SetEPDblBuffCount                                 C:\Users\TURBO9~1\AppData\Local\Temp\arduino_cache_432467\core\core_487b1ced4e7b37e8d402730d0433b7e0.a(usb_regs.c.o)
SetEPDoubleBuff                                   C:\Users\TURBO9~1\AppData\Local\Temp\arduino_cache_432467\core\core_487b1ced4e7b37e8d402730d0433b7e0.a(usb_regs.c.o)
SetEPRxAddr                                       C:\Users\TURBO9~1\AppData\Local\Temp\arduino_cache_432467\core\core_487b1ced4e7b37e8d402730d0433b7e0.a(usb_regs.c.o)
SetEPRxCount                                      C:\Users\TURBO9~1\AppData\Local\Temp\arduino_cache_432467\core\core_487b1ced4e7b37e8d402730d0433b7e0.a(usb_regs.c.o)
                                                  C:\Users\TURBO9~1\AppData\Local\Temp\arduino_cache_432467\core\core_487b1ced4e7b37e8d402730d0433b7e0.a(usb_core.c.o)
SetEPRxStatus                                     C:\Users\TURBO9~1\AppData\Local\Temp\arduino_cache_432467\core\core_487b1ced4e7b37e8d402730d0433b7e0.a(usb_regs.c.o)
SetEPRxValid                                      C:\Users\TURBO9~1\AppData\Local\Temp\arduino_cache_432467\core\core_487b1ced4e7b37e8d402730d0433b7e0.a(usb_regs.c.o)
SetEPTxAddr                                       C:\Users\TURBO9~1\AppData\Local\Temp\arduino_cache_432467\core\core_487b1ced4e7b37e8d402730d0433b7e0.a(usb_regs.c.o)
SetEPTxCount                                      C:\Users\TURBO9~1\AppData\Local\Temp\arduino_cache_432467\core\core_487b1ced4e7b37e8d402730d0433b7e0.a(usb_regs.c.o)
                                                  C:\Users\TURBO9~1\AppData\Local\Temp\arduino_cache_432467\core\core_487b1ced4e7b37e8d402730d0433b7e0.a(usb_core.c.o)
SetEPTxStatus                                     C:\Users\TURBO9~1\AppData\Local\Temp\arduino_cache_432467\core\core_487b1ced4e7b37e8d402730d0433b7e0.a(usb_regs.c.o)
                                                  C:\Users\TURBO9~1\AppData\Local\Temp\arduino_cache_432467\core\core_487b1ced4e7b37e8d402730d0433b7e0.a(usb_core.c.o)
SetEPTxValid                                      C:\Users\TURBO9~1\AppData\Local\Temp\arduino_cache_432467\core\core_487b1ced4e7b37e8d402730d0433b7e0.a(usb_regs.c.o)
SetEPType                                         C:\Users\TURBO9~1\AppData\Local\Temp\arduino_cache_432467\core\core_487b1ced4e7b37e8d402730d0433b7e0.a(usb_regs.c.o)
SetEP_KIND                                        C:\Users\TURBO9~1\AppData\Local\Temp\arduino_cache_432467\core\core_487b1ced4e7b37e8d402730d0433b7e0.a(usb_regs.c.o)
SetISTR                                           C:\Users\TURBO9~1\AppData\Local\Temp\arduino_cache_432467\core\core_487b1ced4e7b37e8d402730d0433b7e0.a(usb_regs.c.o)
Set_Status_Out                                    C:\Users\TURBO9~1\AppData\Local\Temp\arduino_cache_432467\core\core_487b1ced4e7b37e8d402730d0433b7e0.a(usb_regs.c.o)
Setup0_Process                                    C:\Users\TURBO9~1\AppData\Local\Temp\arduino_cache_432467\core\core_487b1ced4e7b37e8d402730d0433b7e0.a(usb_core.c.o)
                                                  C:\Users\TURBO9~1\AppData\Local\Temp\arduino_cache_432467\core\core_487b1ced4e7b37e8d402730d0433b7e0.a(usb.c.o)
Standard_ClearFeature                             C:\Users\TURBO9~1\AppData\Local\Temp\arduino_cache_432467\core\core_487b1ced4e7b37e8d402730d0433b7e0.a(usb_core.c.o)
Standard_GetConfiguration                         C:\Users\TURBO9~1\AppData\Local\Temp\arduino_cache_432467\core\core_487b1ced4e7b37e8d402730d0433b7e0.a(usb_core.c.o)
Standard_GetDescriptorData                        C:\Users\TURBO9~1\AppData\Local\Temp\arduino_cache_432467\core\core_487b1ced4e7b37e8d402730d0433b7e0.a(usb_core.c.o)
                                                  C:\Users\TURBO9~1\AppData\Local\Temp\arduino_cache_432467\core\core_487b1ced4e7b37e8d402730d0433b7e0.a(usb_cdcacm.c.o)
Standard_GetInterface                             C:\Users\TURBO9~1\AppData\Local\Temp\arduino_cache_432467\core\core_487b1ced4e7b37e8d402730d0433b7e0.a(usb_core.c.o)
Standard_GetStatus                                C:\Users\TURBO9~1\AppData\Local\Temp\arduino_cache_432467\core\core_487b1ced4e7b37e8d402730d0433b7e0.a(usb_core.c.o)
Standard_SetConfiguration                         C:\Users\TURBO9~1\AppData\Local\Temp\arduino_cache_432467\core\core_487b1ced4e7b37e8d402730d0433b7e0.a(usb_core.c.o)
Standard_SetDeviceFeature                         C:\Users\TURBO9~1\AppData\Local\Temp\arduino_cache_432467\core\core_487b1ced4e7b37e8d402730d0433b7e0.a(usb_core.c.o)
Standard_SetEndPointFeature                       C:\Users\TURBO9~1\AppData\Local\Temp\arduino_cache_432467\core\core_487b1ced4e7b37e8d402730d0433b7e0.a(usb_core.c.o)
Standard_SetInterface                             C:\Users\TURBO9~1\AppData\Local\Temp\arduino_cache_432467\core\core_487b1ced4e7b37e8d402730d0433b7e0.a(usb_core.c.o)
StatusInfo                                        C:\Users\TURBO9~1\AppData\Local\Temp\arduino_cache_432467\core\core_487b1ced4e7b37e8d402730d0433b7e0.a(usb_core.c.o)
TIMER1                                            C:\Users\TURBO9~1\AppData\Local\Temp\arduino_cache_432467\core\core_487b1ced4e7b37e8d402730d0433b7e0.a(timer.c.o)
TIMER2                                            C:\Users\TURBO9~1\AppData\Local\Temp\arduino_cache_432467\core\core_487b1ced4e7b37e8d402730d0433b7e0.a(timer.c.o)
TIMER3                                            C:\Users\TURBO9~1\AppData\Local\Temp\arduino_cache_432467\core\core_487b1ced4e7b37e8d402730d0433b7e0.a(timer.c.o)
TIMER4                                            C:\Users\TURBO9~1\AppData\Local\Temp\arduino_cache_432467\core\core_487b1ced4e7b37e8d402730d0433b7e0.a(timer.c.o)
Talk_To_Sega()                                    C:\Users\TURBO9~1\AppData\Local\Temp\arduino_build_805463\sketch\blue_pill_keyboard.ino.cpp.o
ToWord                                            C:\Users\TURBO9~1\AppData\Local\Temp\arduino_cache_432467\core\core_487b1ced4e7b37e8d402730d0433b7e0.a(usb_regs.c.o)
ToggleDTOG_RX                                     C:\Users\TURBO9~1\AppData\Local\Temp\arduino_cache_432467\core\core_487b1ced4e7b37e8d402730d0433b7e0.a(usb_regs.c.o)
ToggleDTOG_TX                                     C:\Users\TURBO9~1\AppData\Local\Temp\arduino_cache_432467\core\core_487b1ced4e7b37e8d402730d0433b7e0.a(usb_regs.c.o)
TypematicStatusByte                               C:\Users\TURBO9~1\AppData\Local\Temp\arduino_build_805463\sketch\blue_pill_keyboard.ino.cpp.o
TypematicStatusIncoming                           C:\Users\TURBO9~1\AppData\Local\Temp\arduino_build_805463\sketch\blue_pill_keyboard.ino.cpp.o
USART1                                            C:\Users\TURBO9~1\AppData\Local\Temp\arduino_cache_432467\core\core_487b1ced4e7b37e8d402730d0433b7e0.a(usart_f1.c.o)
                                                  C:\Users\TURBO9~1\AppData\Local\Temp\arduino_build_805463\core\board.cpp.o
USART2                                            C:\Users\TURBO9~1\AppData\Local\Temp\arduino_cache_432467\core\core_487b1ced4e7b37e8d402730d0433b7e0.a(usart_f1.c.o)
                                                  C:\Users\TURBO9~1\AppData\Local\Temp\arduino_build_805463\core\board.cpp.o
USART3                                            C:\Users\TURBO9~1\AppData\Local\Temp\arduino_cache_432467\core\core_487b1ced4e7b37e8d402730d0433b7e0.a(usart_f1.c.o)
                                                  C:\Users\TURBO9~1\AppData\Local\Temp\arduino_build_805463\core\board.cpp.o
USBLIB                                            C:\Users\TURBO9~1\AppData\Local\Temp\arduino_cache_432467\core\core_487b1ced4e7b37e8d402730d0433b7e0.a(usb.c.o)
                                                  C:\Users\TURBO9~1\AppData\Local\Temp\arduino_cache_432467\core\core_487b1ced4e7b37e8d402730d0433b7e0.a(usb_serial.cpp.o)
                                                  C:\Users\TURBO9~1\AppData\Local\Temp\arduino_cache_432467\core\core_487b1ced4e7b37e8d402730d0433b7e0.a(usb_cdcacm.c.o)
USBSerial::USBSerial()                            C:\Users\TURBO9~1\AppData\Local\Temp\arduino_cache_432467\core\core_487b1ced4e7b37e8d402730d0433b7e0.a(usb_serial.cpp.o)
USBSerial::USBSerial()                            C:\Users\TURBO9~1\AppData\Local\Temp\arduino_cache_432467\core\core_487b1ced4e7b37e8d402730d0433b7e0.a(usb_serial.cpp.o)
USBSerial::_hasBegun                              C:\Users\TURBO9~1\AppData\Local\Temp\arduino_cache_432467\core\core_487b1ced4e7b37e8d402730d0433b7e0.a(usb_serial.cpp.o)
USBSerial::available()                            C:\Users\TURBO9~1\AppData\Local\Temp\arduino_cache_432467\core\core_487b1ced4e7b37e8d402730d0433b7e0.a(usb_serial.cpp.o)
USBSerial::availableForWrite()                    C:\Users\TURBO9~1\AppData\Local\Temp\arduino_cache_432467\core\core_487b1ced4e7b37e8d402730d0433b7e0.a(usb_serial.cpp.o)
USBSerial::begin()                                C:\Users\TURBO9~1\AppData\Local\Temp\arduino_cache_432467\core\core_487b1ced4e7b37e8d402730d0433b7e0.a(usb_serial.cpp.o)
                                                  C:\Users\TURBO9~1\AppData\Local\Temp\arduino_build_805463\core\wirish\boards_setup.cpp.o
USBSerial::begin(unsigned long)                   C:\Users\TURBO9~1\AppData\Local\Temp\arduino_cache_432467\core\core_487b1ced4e7b37e8d402730d0433b7e0.a(usb_serial.cpp.o)
USBSerial::begin(unsigned long, unsigned char)    C:\Users\TURBO9~1\AppData\Local\Temp\arduino_cache_432467\core\core_487b1ced4e7b37e8d402730d0433b7e0.a(usb_serial.cpp.o)
USBSerial::end()                                  C:\Users\TURBO9~1\AppData\Local\Temp\arduino_cache_432467\core\core_487b1ced4e7b37e8d402730d0433b7e0.a(usb_serial.cpp.o)
USBSerial::flush()                                C:\Users\TURBO9~1\AppData\Local\Temp\arduino_cache_432467\core\core_487b1ced4e7b37e8d402730d0433b7e0.a(usb_serial.cpp.o)
USBSerial::getDTR()                               C:\Users\TURBO9~1\AppData\Local\Temp\arduino_cache_432467\core\core_487b1ced4e7b37e8d402730d0433b7e0.a(usb_serial.cpp.o)
USBSerial::getRTS()                               C:\Users\TURBO9~1\AppData\Local\Temp\arduino_cache_432467\core\core_487b1ced4e7b37e8d402730d0433b7e0.a(usb_serial.cpp.o)
USBSerial::operator bool()                        C:\Users\TURBO9~1\AppData\Local\Temp\arduino_cache_432467\core\core_487b1ced4e7b37e8d402730d0433b7e0.a(usb_serial.cpp.o)
USBSerial::peek()                                 C:\Users\TURBO9~1\AppData\Local\Temp\arduino_cache_432467\core\core_487b1ced4e7b37e8d402730d0433b7e0.a(usb_serial.cpp.o)
USBSerial::pending()                              C:\Users\TURBO9~1\AppData\Local\Temp\arduino_cache_432467\core\core_487b1ced4e7b37e8d402730d0433b7e0.a(usb_serial.cpp.o)
USBSerial::read()                                 C:\Users\TURBO9~1\AppData\Local\Temp\arduino_cache_432467\core\core_487b1ced4e7b37e8d402730d0433b7e0.a(usb_serial.cpp.o)
USBSerial::read(unsigned char*, unsigned long)    C:\Users\TURBO9~1\AppData\Local\Temp\arduino_cache_432467\core\core_487b1ced4e7b37e8d402730d0433b7e0.a(usb_serial.cpp.o)
USBSerial::readBytes(char*, unsigned int const&)  C:\Users\TURBO9~1\AppData\Local\Temp\arduino_cache_432467\core\core_487b1ced4e7b37e8d402730d0433b7e0.a(usb_serial.cpp.o)
USBSerial::write(char const*)                     C:\Users\TURBO9~1\AppData\Local\Temp\arduino_cache_432467\core\core_487b1ced4e7b37e8d402730d0433b7e0.a(usb_serial.cpp.o)
USBSerial::write(unsigned char const*, unsigned long) C:\Users\TURBO9~1\AppData\Local\Temp\arduino_cache_432467\core\core_487b1ced4e7b37e8d402730d0433b7e0.a(usb_serial.cpp.o)
USBSerial::write(unsigned char)                   C:\Users\TURBO9~1\AppData\Local\Temp\arduino_cache_432467\core\core_487b1ced4e7b37e8d402730d0433b7e0.a(usb_serial.cpp.o)
USB_Init                                          C:\Users\TURBO9~1\AppData\Local\Temp\arduino_cache_432467\core\core_487b1ced4e7b37e8d402730d0433b7e0.a(usb_init.c.o)
UserToPMABufferCopy                               C:\Users\TURBO9~1\AppData\Local\Temp\arduino_cache_432467\core\core_487b1ced4e7b37e8d402730d0433b7e0.a(usb_mem.c.o)
                                                  C:\Users\TURBO9~1\AppData\Local\Temp\arduino_cache_432467\core\core_487b1ced4e7b37e8d402730d0433b7e0.a(usb_core.c.o)
User_Standard_Requests                            C:\Users\TURBO9~1\AppData\Local\Temp\arduino_cache_432467\core\core_487b1ced4e7b37e8d402730d0433b7e0.a(usb_cdcacm.c.o)
                                                  C:\Users\TURBO9~1\AppData\Local\Temp\arduino_cache_432467\core\core_487b1ced4e7b37e8d402730d0433b7e0.a(usb_init.c.o)
                                                  C:\Users\TURBO9~1\AppData\Local\Temp\arduino_cache_432467\core\core_487b1ced4e7b37e8d402730d0433b7e0.a(usb.c.o)
WriteToPS2keyboard                                C:\Users\TURBO9~1\AppData\Local\Temp\arduino_build_805463\sketch\blue_pill_keyboard.ino.cpp.o
_Jv_RegisterClasses                               c:/users/turbo9000/appdata/local/arduino15/packages/arduino/tools/arm-none-eabi-gcc/4.8.3-2014q1/bin/../lib/gcc/arm-none-eabi/4.8.3/armv7-m/crtbegin.o
__adddf3                                          c:/users/turbo9000/appdata/local/arduino15/packages/arduino/tools/arm-none-eabi-gcc/4.8.3-2014q1/bin/../lib/gcc/arm-none-eabi/4.8.3/armv7-m\libgcc.a(_arm_addsubdf3.o)
__aeabi_cdcmpeq                                   c:/users/turbo9000/appdata/local/arduino15/packages/arduino/tools/arm-none-eabi-gcc/4.8.3-2014q1/bin/../lib/gcc/arm-none-eabi/4.8.3/armv7-m\libgcc.a(_arm_cmpdf2.o)
__aeabi_cdcmple                                   c:/users/turbo9000/appdata/local/arduino15/packages/arduino/tools/arm-none-eabi-gcc/4.8.3-2014q1/bin/../lib/gcc/arm-none-eabi/4.8.3/armv7-m\libgcc.a(_arm_cmpdf2.o)
__aeabi_cdrcmple                                  c:/users/turbo9000/appdata/local/arduino15/packages/arduino/tools/arm-none-eabi-gcc/4.8.3-2014q1/bin/../lib/gcc/arm-none-eabi/4.8.3/armv7-m\libgcc.a(_arm_cmpdf2.o)
__aeabi_d2iz                                      c:/users/turbo9000/appdata/local/arduino15/packages/arduino/tools/arm-none-eabi-gcc/4.8.3-2014q1/bin/../lib/gcc/arm-none-eabi/4.8.3/armv7-m\libgcc.a(_arm_fixdfsi.o)
                                                  C:\Users\TURBO9~1\AppData\Local\Temp\arduino_cache_432467\core\core_487b1ced4e7b37e8d402730d0433b7e0.a(Print.cpp.o)
__aeabi_d2lz                                      c:/users/turbo9000/appdata/local/arduino15/packages/arduino/tools/arm-none-eabi-gcc/4.8.3-2014q1/bin/../lib/gcc/arm-none-eabi/4.8.3/armv7-m\libgcc.a(_fixdfdi.o)
                                                  C:\Users\TURBO9~1\AppData\Local\Temp\arduino_cache_432467\core\core_487b1ced4e7b37e8d402730d0433b7e0.a(Print.cpp.o)
__aeabi_d2uiz                                     c:/users/turbo9000/appdata/local/arduino15/packages/arduino/tools/arm-none-eabi-gcc/4.8.3-2014q1/bin/../lib/gcc/arm-none-eabi/4.8.3/armv7-m\libgcc.a(_arm_fixunsdfsi.o)
                                                  c:/users/turbo9000/appdata/local/arduino15/packages/arduino/tools/arm-none-eabi-gcc/4.8.3-2014q1/bin/../lib/gcc/arm-none-eabi/4.8.3/armv7-m\libgcc.a(_fixunsdfdi.o)
__aeabi_d2ulz                                     c:/users/turbo9000/appdata/local/arduino15/packages/arduino/tools/arm-none-eabi-gcc/4.8.3-2014q1/bin/../lib/gcc/arm-none-eabi/4.8.3/armv7-m\libgcc.a(_fixunsdfdi.o)
                                                  c:/users/turbo9000/appdata/local/arduino15/packages/arduino/tools/arm-none-eabi-gcc/4.8.3-2014q1/bin/../lib/gcc/arm-none-eabi/4.8.3/armv7-m\libgcc.a(_fixdfdi.o)
__aeabi_dadd                                      c:/users/turbo9000/appdata/local/arduino15/packages/arduino/tools/arm-none-eabi-gcc/4.8.3-2014q1/bin/../lib/gcc/arm-none-eabi/4.8.3/armv7-m\libgcc.a(_arm_addsubdf3.o)
                                                  C:\Users\TURBO9~1\AppData\Local\Temp\arduino_cache_432467\core\core_487b1ced4e7b37e8d402730d0433b7e0.a(Print.cpp.o)
__aeabi_dcmpeq                                    c:/users/turbo9000/appdata/local/arduino15/packages/arduino/tools/arm-none-eabi-gcc/4.8.3-2014q1/bin/../lib/gcc/arm-none-eabi/4.8.3/armv7-m\libgcc.a(_arm_cmpdf2.o)
__aeabi_dcmpge                                    c:/users/turbo9000/appdata/local/arduino15/packages/arduino/tools/arm-none-eabi-gcc/4.8.3-2014q1/bin/../lib/gcc/arm-none-eabi/4.8.3/armv7-m\libgcc.a(_arm_cmpdf2.o)
                                                  C:\Users\TURBO9~1\AppData\Local\Temp\arduino_cache_432467\core\core_487b1ced4e7b37e8d402730d0433b7e0.a(Print.cpp.o)
__aeabi_dcmpgt                                    c:/users/turbo9000/appdata/local/arduino15/packages/arduino/tools/arm-none-eabi-gcc/4.8.3-2014q1/bin/../lib/gcc/arm-none-eabi/4.8.3/armv7-m\libgcc.a(_arm_cmpdf2.o)
                                                  C:\Users\TURBO9~1\AppData\Local\Temp\arduino_cache_432467\core\core_487b1ced4e7b37e8d402730d0433b7e0.a(Print.cpp.o)
__aeabi_dcmple                                    c:/users/turbo9000/appdata/local/arduino15/packages/arduino/tools/arm-none-eabi-gcc/4.8.3-2014q1/bin/../lib/gcc/arm-none-eabi/4.8.3/armv7-m\libgcc.a(_arm_cmpdf2.o)
                                                  C:\Users\TURBO9~1\AppData\Local\Temp\arduino_cache_432467\core\core_487b1ced4e7b37e8d402730d0433b7e0.a(Print.cpp.o)
__aeabi_dcmplt                                    c:/users/turbo9000/appdata/local/arduino15/packages/arduino/tools/arm-none-eabi-gcc/4.8.3-2014q1/bin/../lib/gcc/arm-none-eabi/4.8.3/armv7-m\libgcc.a(_arm_cmpdf2.o)
                                                  c:/users/turbo9000/appdata/local/arduino15/packages/arduino/tools/arm-none-eabi-gcc/4.8.3-2014q1/bin/../lib/gcc/arm-none-eabi/4.8.3/armv7-m\libgcc.a(_fixdfdi.o)
                                                  C:\Users\TURBO9~1\AppData\Local\Temp\arduino_cache_432467\core\core_487b1ced4e7b37e8d402730d0433b7e0.a(Print.cpp.o)
__aeabi_ddiv                                      c:/users/turbo9000/appdata/local/arduino15/packages/arduino/tools/arm-none-eabi-gcc/4.8.3-2014q1/bin/../lib/gcc/arm-none-eabi/4.8.3/armv7-m\libgcc.a(_arm_muldivdf3.o)
                                                  C:\Users\TURBO9~1\AppData\Local\Temp\arduino_cache_432467\core\core_487b1ced4e7b37e8d402730d0433b7e0.a(Print.cpp.o)
__aeabi_dmul                                      c:/users/turbo9000/appdata/local/arduino15/packages/arduino/tools/arm-none-eabi-gcc/4.8.3-2014q1/bin/../lib/gcc/arm-none-eabi/4.8.3/armv7-m\libgcc.a(_arm_muldivdf3.o)
                                                  c:/users/turbo9000/appdata/local/arduino15/packages/arduino/tools/arm-none-eabi-gcc/4.8.3-2014q1/bin/../lib/gcc/arm-none-eabi/4.8.3/armv7-m\libgcc.a(_fixunsdfdi.o)
                                                  C:\Users\TURBO9~1\AppData\Local\Temp\arduino_cache_432467\core\core_487b1ced4e7b37e8d402730d0433b7e0.a(Print.cpp.o)
__aeabi_drsub                                     c:/users/turbo9000/appdata/local/arduino15/packages/arduino/tools/arm-none-eabi-gcc/4.8.3-2014q1/bin/../lib/gcc/arm-none-eabi/4.8.3/armv7-m\libgcc.a(_arm_addsubdf3.o)
__aeabi_dsub                                      c:/users/turbo9000/appdata/local/arduino15/packages/arduino/tools/arm-none-eabi-gcc/4.8.3-2014q1/bin/../lib/gcc/arm-none-eabi/4.8.3/armv7-m\libgcc.a(_arm_addsubdf3.o)
                                                  c:/users/turbo9000/appdata/local/arduino15/packages/arduino/tools/arm-none-eabi-gcc/4.8.3-2014q1/bin/../lib/gcc/arm-none-eabi/4.8.3/armv7-m\libgcc.a(_fixunsdfdi.o)
                                                  C:\Users\TURBO9~1\AppData\Local\Temp\arduino_cache_432467\core\core_487b1ced4e7b37e8d402730d0433b7e0.a(Print.cpp.o)
__aeabi_f2d                                       c:/users/turbo9000/appdata/local/arduino15/packages/arduino/tools/arm-none-eabi-gcc/4.8.3-2014q1/bin/../lib/gcc/arm-none-eabi/4.8.3/armv7-m\libgcc.a(_arm_addsubdf3.o)
__aeabi_i2d                                       c:/users/turbo9000/appdata/local/arduino15/packages/arduino/tools/arm-none-eabi-gcc/4.8.3-2014q1/bin/../lib/gcc/arm-none-eabi/4.8.3/armv7-m\libgcc.a(_arm_addsubdf3.o)
                                                  C:\Users\TURBO9~1\AppData\Local\Temp\arduino_cache_432467\core\core_487b1ced4e7b37e8d402730d0433b7e0.a(Print.cpp.o)
__aeabi_idiv0                                     c:/users/turbo9000/appdata/local/arduino15/packages/arduino/tools/arm-none-eabi-gcc/4.8.3-2014q1/bin/../lib/gcc/arm-none-eabi/4.8.3/armv7-m\libgcc.a(_dvmd_tls.o)
__aeabi_l2d                                       c:/users/turbo9000/appdata/local/arduino15/packages/arduino/tools/arm-none-eabi-gcc/4.8.3-2014q1/bin/../lib/gcc/arm-none-eabi/4.8.3/armv7-m\libgcc.a(_arm_addsubdf3.o)
                                                  C:\Users\TURBO9~1\AppData\Local\Temp\arduino_cache_432467\core\core_487b1ced4e7b37e8d402730d0433b7e0.a(Print.cpp.o)
__aeabi_ldiv0                                     c:/users/turbo9000/appdata/local/arduino15/packages/arduino/tools/arm-none-eabi-gcc/4.8.3-2014q1/bin/../lib/gcc/arm-none-eabi/4.8.3/armv7-m\libgcc.a(_dvmd_tls.o)
                                                  c:/users/turbo9000/appdata/local/arduino15/packages/arduino/tools/arm-none-eabi-gcc/4.8.3-2014q1/bin/../lib/gcc/arm-none-eabi/4.8.3/armv7-m\libgcc.a(_aeabi_uldivmod.o)
__aeabi_ui2d                                      c:/users/turbo9000/appdata/local/arduino15/packages/arduino/tools/arm-none-eabi-gcc/4.8.3-2014q1/bin/../lib/gcc/arm-none-eabi/4.8.3/armv7-m\libgcc.a(_arm_addsubdf3.o)
                                                  c:/users/turbo9000/appdata/local/arduino15/packages/arduino/tools/arm-none-eabi-gcc/4.8.3-2014q1/bin/../lib/gcc/arm-none-eabi/4.8.3/armv7-m\libgcc.a(_fixunsdfdi.o)
__aeabi_ul2d                                      c:/users/turbo9000/appdata/local/arduino15/packages/arduino/tools/arm-none-eabi-gcc/4.8.3-2014q1/bin/../lib/gcc/arm-none-eabi/4.8.3/armv7-m\libgcc.a(_arm_addsubdf3.o)
__aeabi_uldivmod                                  c:/users/turbo9000/appdata/local/arduino15/packages/arduino/tools/arm-none-eabi-gcc/4.8.3-2014q1/bin/../lib/gcc/arm-none-eabi/4.8.3/armv7-m\libgcc.a(_aeabi_uldivmod.o)
                                                  C:\Users\TURBO9~1\AppData\Local\Temp\arduino_cache_432467\core\core_487b1ced4e7b37e8d402730d0433b7e0.a(Print.cpp.o)
__assert_func                                     C:\Users\TURBO9~1\AppData\Local\Temp\arduino_cache_432467\core\core_487b1ced4e7b37e8d402730d0433b7e0.a(util.c.o)
__bss_end__                                       C:\Users\TURBO9~1\AppData\Local\Temp\arduino_build_805463\core\wirish\start_c.c.o
                                                  c:/users/turbo9000/appdata/local/arduino15/packages/arduino/tools/arm-none-eabi-gcc/4.8.3-2014q1/bin/../lib/gcc/arm-none-eabi/4.8.3/../../../../arm-none-eabi/lib/armv7-m/crt0.o
__bss_start__                                     C:\Users\TURBO9~1\AppData\Local\Temp\arduino_build_805463\core\wirish\start_c.c.o
                                                  c:/users/turbo9000/appdata/local/arduino15/packages/arduino/tools/arm-none-eabi-gcc/4.8.3-2014q1/bin/../lib/gcc/arm-none-eabi/4.8.3/../../../../arm-none-eabi/lib/armv7-m/crt0.o
__call_exitprocs                                  c:/users/turbo9000/appdata/local/arduino15/packages/arduino/tools/arm-none-eabi-gcc/4.8.3-2014q1/bin/../lib/gcc/arm-none-eabi/4.8.3/../../../../arm-none-eabi/lib/armv7-m\libc.a(lib_a-__call_atexit.o)
                                                  c:/users/turbo9000/appdata/local/arduino15/packages/arduino/tools/arm-none-eabi-gcc/4.8.3-2014q1/bin/../lib/gcc/arm-none-eabi/4.8.3/../../../../arm-none-eabi/lib/armv7-m\libc.a(lib_a-exit.o)
__cmpdf2                                          c:/users/turbo9000/appdata/local/arduino15/packages/arduino/tools/arm-none-eabi-gcc/4.8.3-2014q1/bin/../lib/gcc/arm-none-eabi/4.8.3/armv7-m\libgcc.a(_arm_cmpdf2.o)
__cxa_pure_virtual                                C:\Users\TURBO9~1\AppData\Local\Temp\arduino_cache_432467\core\core_487b1ced4e7b37e8d402730d0433b7e0.a(cxxabi-compat.cpp.o)
                                                  C:\Users\TURBO9~1\AppData\Local\Temp\arduino_cache_432467\core\core_487b1ced4e7b37e8d402730d0433b7e0.a(usb_serial.cpp.o)
                                                  C:\Users\TURBO9~1\AppData\Local\Temp\arduino_cache_432467\core\core_487b1ced4e7b37e8d402730d0433b7e0.a(Print.cpp.o)
                                                  C:\Users\TURBO9~1\AppData\Local\Temp\arduino_cache_432467\core\core_487b1ced4e7b37e8d402730d0433b7e0.a(HardwareSerial.cpp.o)
__data_end__                                      C:\Users\TURBO9~1\AppData\Local\Temp\arduino_build_805463\core\wirish\start_c.c.o
__data_start__                                    C:\Users\TURBO9~1\AppData\Local\Temp\arduino_build_805463\core\wirish\start_c.c.o
__default_handler                                 C:\Users\TURBO9~1\AppData\Local\Temp\arduino_cache_432467\core\core_487b1ced4e7b37e8d402730d0433b7e0.a(isrs.S.o)
__deregister_frame_info                           c:/users/turbo9000/appdata/local/arduino15/packages/arduino/tools/arm-none-eabi-gcc/4.8.3-2014q1/bin/../lib/gcc/arm-none-eabi/4.8.3/armv7-m/crtbegin.o
__divdf3                                          c:/users/turbo9000/appdata/local/arduino15/packages/arduino/tools/arm-none-eabi-gcc/4.8.3-2014q1/bin/../lib/gcc/arm-none-eabi/4.8.3/armv7-m\libgcc.a(_arm_muldivdf3.o)
__divdi3                                          c:/users/turbo9000/appdata/local/arduino15/packages/arduino/tools/arm-none-eabi-gcc/4.8.3-2014q1/bin/../lib/gcc/arm-none-eabi/4.8.3/armv7-m\libgcc.a(_divdi3.o)
                                                  c:/users/turbo9000/appdata/local/arduino15/packages/arduino/tools/arm-none-eabi-gcc/4.8.3-2014q1/bin/../lib/gcc/arm-none-eabi/4.8.3/armv7-m\libgcc.a(bpabi.o)
__dso_handle                                      c:/users/turbo9000/appdata/local/arduino15/packages/arduino/tools/arm-none-eabi-gcc/4.8.3-2014q1/bin/../lib/gcc/arm-none-eabi/4.8.3/armv7-m/crtbegin.o
__eqdf2                                           c:/users/turbo9000/appdata/local/arduino15/packages/arduino/tools/arm-none-eabi-gcc/4.8.3-2014q1/bin/../lib/gcc/arm-none-eabi/4.8.3/armv7-m\libgcc.a(_arm_cmpdf2.o)
__errno                                           c:/users/turbo9000/appdata/local/arduino15/packages/arduino/tools/arm-none-eabi-gcc/4.8.3-2014q1/bin/../lib/gcc/arm-none-eabi/4.8.3/../../../../arm-none-eabi/lib/armv7-m\libc.a(lib_a-errno.o)
                                                  C:\Users\TURBO9~1\AppData\Local\Temp\arduino_build_805463\core\wirish\syscalls.c.o
__error                                           C:\Users\TURBO9~1\AppData\Local\Temp\arduino_cache_432467\core\core_487b1ced4e7b37e8d402730d0433b7e0.a(util.c.o)
                                                  C:\Users\TURBO9~1\AppData\Local\Temp\arduino_cache_432467\core\core_487b1ced4e7b37e8d402730d0433b7e0.a(exc.S.o)
__exc_busfault                                    C:\Users\TURBO9~1\AppData\Local\Temp\arduino_cache_432467\core\core_487b1ced4e7b37e8d402730d0433b7e0.a(exc.S.o)
                                                  C:\Users\TURBO9~1\AppData\Local\Temp\arduino_cache_432467\core\core_487b1ced4e7b37e8d402730d0433b7e0.a(vector_table.S.o)
__exc_debug_monitor                               C:\Users\TURBO9~1\AppData\Local\Temp\arduino_cache_432467\core\core_487b1ced4e7b37e8d402730d0433b7e0.a(isrs.S.o)
                                                  C:\Users\TURBO9~1\AppData\Local\Temp\arduino_cache_432467\core\core_487b1ced4e7b37e8d402730d0433b7e0.a(vector_table.S.o)
__exc_hardfault                                   C:\Users\TURBO9~1\AppData\Local\Temp\arduino_cache_432467\core\core_487b1ced4e7b37e8d402730d0433b7e0.a(exc.S.o)
                                                  C:\Users\TURBO9~1\AppData\Local\Temp\arduino_cache_432467\core\core_487b1ced4e7b37e8d402730d0433b7e0.a(vector_table.S.o)
__exc_memmanage                                   C:\Users\TURBO9~1\AppData\Local\Temp\arduino_cache_432467\core\core_487b1ced4e7b37e8d402730d0433b7e0.a(exc.S.o)
                                                  C:\Users\TURBO9~1\AppData\Local\Temp\arduino_cache_432467\core\core_487b1ced4e7b37e8d402730d0433b7e0.a(vector_table.S.o)
__exc_nmi                                         C:\Users\TURBO9~1\AppData\Local\Temp\arduino_cache_432467\core\core_487b1ced4e7b37e8d402730d0433b7e0.a(exc.S.o)
                                                  C:\Users\TURBO9~1\AppData\Local\Temp\arduino_cache_432467\core\core_487b1ced4e7b37e8d402730d0433b7e0.a(vector_table.S.o)
__exc_pendsv                                      C:\Users\TURBO9~1\AppData\Local\Temp\arduino_cache_432467\core\core_487b1ced4e7b37e8d402730d0433b7e0.a(isrs.S.o)
                                                  C:\Users\TURBO9~1\AppData\Local\Temp\arduino_cache_432467\core\core_487b1ced4e7b37e8d402730d0433b7e0.a(vector_table.S.o)
__exc_reset                                       C:\Users\TURBO9~1\AppData\Local\Temp\arduino_cache_432467\core\core_487b1ced4e7b37e8d402730d0433b7e0.a(vector_table.S.o)
__exc_svc                                         C:\Users\TURBO9~1\AppData\Local\Temp\arduino_cache_432467\core\core_487b1ced4e7b37e8d402730d0433b7e0.a(isrs.S.o)
                                                  C:\Users\TURBO9~1\AppData\Local\Temp\arduino_cache_432467\core\core_487b1ced4e7b37e8d402730d0433b7e0.a(vector_table.S.o)
__exc_systick                                     C:\Users\TURBO9~1\AppData\Local\Temp\arduino_cache_432467\core\core_487b1ced4e7b37e8d402730d0433b7e0.a(systick.c.o)
                                                  C:\Users\TURBO9~1\AppData\Local\Temp\arduino_cache_432467\core\core_487b1ced4e7b37e8d402730d0433b7e0.a(vector_table.S.o)
__exc_usagefault                                  C:\Users\TURBO9~1\AppData\Local\Temp\arduino_cache_432467\core\core_487b1ced4e7b37e8d402730d0433b7e0.a(exc.S.o)
                                                  C:\Users\TURBO9~1\AppData\Local\Temp\arduino_cache_432467\core\core_487b1ced4e7b37e8d402730d0433b7e0.a(vector_table.S.o)
__extendsfdf2                                     c:/users/turbo9000/appdata/local/arduino15/packages/arduino/tools/arm-none-eabi-gcc/4.8.3-2014q1/bin/../lib/gcc/arm-none-eabi/4.8.3/armv7-m\libgcc.a(_arm_addsubdf3.o)
__fini_array_end                                  c:/users/turbo9000/appdata/local/arduino15/packages/arduino/tools/arm-none-eabi-gcc/4.8.3-2014q1/bin/../lib/gcc/arm-none-eabi/4.8.3/../../../../arm-none-eabi/lib/armv7-m\libc.a(lib_a-fini.o)
__fini_array_start                                c:/users/turbo9000/appdata/local/arduino15/packages/arduino/tools/arm-none-eabi-gcc/4.8.3-2014q1/bin/../lib/gcc/arm-none-eabi/4.8.3/../../../../arm-none-eabi/lib/armv7-m\libc.a(lib_a-fini.o)
__fixdfdi                                         c:/users/turbo9000/appdata/local/arduino15/packages/arduino/tools/arm-none-eabi-gcc/4.8.3-2014q1/bin/../lib/gcc/arm-none-eabi/4.8.3/armv7-m\libgcc.a(_fixdfdi.o)
__fixdfsi                                         c:/users/turbo9000/appdata/local/arduino15/packages/arduino/tools/arm-none-eabi-gcc/4.8.3-2014q1/bin/../lib/gcc/arm-none-eabi/4.8.3/armv7-m\libgcc.a(_arm_fixdfsi.o)
__fixunsdfdi                                      c:/users/turbo9000/appdata/local/arduino15/packages/arduino/tools/arm-none-eabi-gcc/4.8.3-2014q1/bin/../lib/gcc/arm-none-eabi/4.8.3/armv7-m\libgcc.a(_fixunsdfdi.o)
__fixunsdfsi                                      c:/users/turbo9000/appdata/local/arduino15/packages/arduino/tools/arm-none-eabi-gcc/4.8.3-2014q1/bin/../lib/gcc/arm-none-eabi/4.8.3/armv7-m\libgcc.a(_arm_fixunsdfsi.o)
__floatdidf                                       c:/users/turbo9000/appdata/local/arduino15/packages/arduino/tools/arm-none-eabi-gcc/4.8.3-2014q1/bin/../lib/gcc/arm-none-eabi/4.8.3/armv7-m\libgcc.a(_arm_addsubdf3.o)
__floatsidf                                       c:/users/turbo9000/appdata/local/arduino15/packages/arduino/tools/arm-none-eabi-gcc/4.8.3-2014q1/bin/../lib/gcc/arm-none-eabi/4.8.3/armv7-m\libgcc.a(_arm_addsubdf3.o)
__floatundidf                                     c:/users/turbo9000/appdata/local/arduino15/packages/arduino/tools/arm-none-eabi-gcc/4.8.3-2014q1/bin/../lib/gcc/arm-none-eabi/4.8.3/armv7-m\libgcc.a(_arm_addsubdf3.o)
__floatunsidf                                     c:/users/turbo9000/appdata/local/arduino15/packages/arduino/tools/arm-none-eabi-gcc/4.8.3-2014q1/bin/../lib/gcc/arm-none-eabi/4.8.3/armv7-m\libgcc.a(_arm_addsubdf3.o)
__gedf2                                           c:/users/turbo9000/appdata/local/arduino15/packages/arduino/tools/arm-none-eabi-gcc/4.8.3-2014q1/bin/../lib/gcc/arm-none-eabi/4.8.3/armv7-m\libgcc.a(_arm_cmpdf2.o)
__gnu_ldivmod_helper                              c:/users/turbo9000/appdata/local/arduino15/packages/arduino/tools/arm-none-eabi-gcc/4.8.3-2014q1/bin/../lib/gcc/arm-none-eabi/4.8.3/armv7-m\libgcc.a(bpabi.o)
__gnu_uldivmod_helper                             c:/users/turbo9000/appdata/local/arduino15/packages/arduino/tools/arm-none-eabi-gcc/4.8.3-2014q1/bin/../lib/gcc/arm-none-eabi/4.8.3/armv7-m\libgcc.a(bpabi.o)
                                                  c:/users/turbo9000/appdata/local/arduino15/packages/arduino/tools/arm-none-eabi-gcc/4.8.3-2014q1/bin/../lib/gcc/arm-none-eabi/4.8.3/armv7-m\libgcc.a(_aeabi_uldivmod.o)
__gtdf2                                           c:/users/turbo9000/appdata/local/arduino15/packages/arduino/tools/arm-none-eabi-gcc/4.8.3-2014q1/bin/../lib/gcc/arm-none-eabi/4.8.3/armv7-m\libgcc.a(_arm_cmpdf2.o)
__init_array_end                                  c:/users/turbo9000/appdata/local/arduino15/packages/arduino/tools/arm-none-eabi-gcc/4.8.3-2014q1/bin/../lib/gcc/arm-none-eabi/4.8.3/../../../../arm-none-eabi/lib/armv7-m\libc.a(lib_a-init.o)
__init_array_start                                c:/users/turbo9000/appdata/local/arduino15/packages/arduino/tools/arm-none-eabi-gcc/4.8.3-2014q1/bin/../lib/gcc/arm-none-eabi/4.8.3/../../../../arm-none-eabi/lib/armv7-m\libc.a(lib_a-init.o)
__irq_adc                                         C:\Users\TURBO9~1\AppData\Local\Temp\arduino_cache_432467\core\core_487b1ced4e7b37e8d402730d0433b7e0.a(adc_f1.c.o)
                                                  C:\Users\TURBO9~1\AppData\Local\Temp\arduino_cache_432467\core\core_487b1ced4e7b37e8d402730d0433b7e0.a(vector_table.S.o)
__irq_can_rx1                                     C:\Users\TURBO9~1\AppData\Local\Temp\arduino_cache_432467\core\core_487b1ced4e7b37e8d402730d0433b7e0.a(isrs.S.o)
                                                  C:\Users\TURBO9~1\AppData\Local\Temp\arduino_cache_432467\core\core_487b1ced4e7b37e8d402730d0433b7e0.a(vector_table.S.o)
__irq_can_sce                                     C:\Users\TURBO9~1\AppData\Local\Temp\arduino_cache_432467\core\core_487b1ced4e7b37e8d402730d0433b7e0.a(isrs.S.o)
                                                  C:\Users\TURBO9~1\AppData\Local\Temp\arduino_cache_432467\core\core_487b1ced4e7b37e8d402730d0433b7e0.a(vector_table.S.o)
__irq_dma1_channel1                               C:\Users\TURBO9~1\AppData\Local\Temp\arduino_cache_432467\core\core_487b1ced4e7b37e8d402730d0433b7e0.a(dma_f1.c.o)
                                                  C:\Users\TURBO9~1\AppData\Local\Temp\arduino_cache_432467\core\core_487b1ced4e7b37e8d402730d0433b7e0.a(vector_table.S.o)
__irq_dma1_channel2                               C:\Users\TURBO9~1\AppData\Local\Temp\arduino_cache_432467\core\core_487b1ced4e7b37e8d402730d0433b7e0.a(dma_f1.c.o)
                                                  C:\Users\TURBO9~1\AppData\Local\Temp\arduino_cache_432467\core\core_487b1ced4e7b37e8d402730d0433b7e0.a(vector_table.S.o)
__irq_dma1_channel3                               C:\Users\TURBO9~1\AppData\Local\Temp\arduino_cache_432467\core\core_487b1ced4e7b37e8d402730d0433b7e0.a(dma_f1.c.o)
                                                  C:\Users\TURBO9~1\AppData\Local\Temp\arduino_cache_432467\core\core_487b1ced4e7b37e8d402730d0433b7e0.a(vector_table.S.o)
__irq_dma1_channel4                               C:\Users\TURBO9~1\AppData\Local\Temp\arduino_cache_432467\core\core_487b1ced4e7b37e8d402730d0433b7e0.a(dma_f1.c.o)
                                                  C:\Users\TURBO9~1\AppData\Local\Temp\arduino_cache_432467\core\core_487b1ced4e7b37e8d402730d0433b7e0.a(vector_table.S.o)
__irq_dma1_channel5                               C:\Users\TURBO9~1\AppData\Local\Temp\arduino_cache_432467\core\core_487b1ced4e7b37e8d402730d0433b7e0.a(dma_f1.c.o)
                                                  C:\Users\TURBO9~1\AppData\Local\Temp\arduino_cache_432467\core\core_487b1ced4e7b37e8d402730d0433b7e0.a(vector_table.S.o)
__irq_dma1_channel6                               C:\Users\TURBO9~1\AppData\Local\Temp\arduino_cache_432467\core\core_487b1ced4e7b37e8d402730d0433b7e0.a(dma_f1.c.o)
                                                  C:\Users\TURBO9~1\AppData\Local\Temp\arduino_cache_432467\core\core_487b1ced4e7b37e8d402730d0433b7e0.a(vector_table.S.o)
__irq_dma1_channel7                               C:\Users\TURBO9~1\AppData\Local\Temp\arduino_cache_432467\core\core_487b1ced4e7b37e8d402730d0433b7e0.a(dma_f1.c.o)
                                                  C:\Users\TURBO9~1\AppData\Local\Temp\arduino_cache_432467\core\core_487b1ced4e7b37e8d402730d0433b7e0.a(vector_table.S.o)
__irq_exti0                                       C:\Users\TURBO9~1\AppData\Local\Temp\arduino_cache_432467\core\core_487b1ced4e7b37e8d402730d0433b7e0.a(exti.c.o)
                                                  C:\Users\TURBO9~1\AppData\Local\Temp\arduino_cache_432467\core\core_487b1ced4e7b37e8d402730d0433b7e0.a(vector_table.S.o)
__irq_exti1                                       C:\Users\TURBO9~1\AppData\Local\Temp\arduino_cache_432467\core\core_487b1ced4e7b37e8d402730d0433b7e0.a(exti.c.o)
                                                  C:\Users\TURBO9~1\AppData\Local\Temp\arduino_cache_432467\core\core_487b1ced4e7b37e8d402730d0433b7e0.a(vector_table.S.o)
__irq_exti15_10                                   C:\Users\TURBO9~1\AppData\Local\Temp\arduino_cache_432467\core\core_487b1ced4e7b37e8d402730d0433b7e0.a(exti.c.o)
                                                  C:\Users\TURBO9~1\AppData\Local\Temp\arduino_cache_432467\core\core_487b1ced4e7b37e8d402730d0433b7e0.a(vector_table.S.o)
__irq_exti2                                       C:\Users\TURBO9~1\AppData\Local\Temp\arduino_cache_432467\core\core_487b1ced4e7b37e8d402730d0433b7e0.a(exti.c.o)
                                                  C:\Users\TURBO9~1\AppData\Local\Temp\arduino_cache_432467\core\core_487b1ced4e7b37e8d402730d0433b7e0.a(vector_table.S.o)
__irq_exti3                                       C:\Users\TURBO9~1\AppData\Local\Temp\arduino_cache_432467\core\core_487b1ced4e7b37e8d402730d0433b7e0.a(exti.c.o)
                                                  C:\Users\TURBO9~1\AppData\Local\Temp\arduino_cache_432467\core\core_487b1ced4e7b37e8d402730d0433b7e0.a(vector_table.S.o)
__irq_exti4                                       C:\Users\TURBO9~1\AppData\Local\Temp\arduino_cache_432467\core\core_487b1ced4e7b37e8d402730d0433b7e0.a(exti.c.o)
                                                  C:\Users\TURBO9~1\AppData\Local\Temp\arduino_cache_432467\core\core_487b1ced4e7b37e8d402730d0433b7e0.a(vector_table.S.o)
__irq_exti9_5                                     C:\Users\TURBO9~1\AppData\Local\Temp\arduino_cache_432467\core\core_487b1ced4e7b37e8d402730d0433b7e0.a(exti.c.o)
                                                  C:\Users\TURBO9~1\AppData\Local\Temp\arduino_cache_432467\core\core_487b1ced4e7b37e8d402730d0433b7e0.a(vector_table.S.o)
__irq_flash                                       C:\Users\TURBO9~1\AppData\Local\Temp\arduino_cache_432467\core\core_487b1ced4e7b37e8d402730d0433b7e0.a(isrs.S.o)
                                                  C:\Users\TURBO9~1\AppData\Local\Temp\arduino_cache_432467\core\core_487b1ced4e7b37e8d402730d0433b7e0.a(vector_table.S.o)
__irq_i2c1_er                                     C:\Users\TURBO9~1\AppData\Local\Temp\arduino_cache_432467\core\core_487b1ced4e7b37e8d402730d0433b7e0.a(i2c_f1.c.o)
                                                  C:\Users\TURBO9~1\AppData\Local\Temp\arduino_cache_432467\core\core_487b1ced4e7b37e8d402730d0433b7e0.a(vector_table.S.o)
__irq_i2c1_ev                                     C:\Users\TURBO9~1\AppData\Local\Temp\arduino_cache_432467\core\core_487b1ced4e7b37e8d402730d0433b7e0.a(i2c_f1.c.o)
                                                  C:\Users\TURBO9~1\AppData\Local\Temp\arduino_cache_432467\core\core_487b1ced4e7b37e8d402730d0433b7e0.a(vector_table.S.o)
__irq_i2c2_er                                     C:\Users\TURBO9~1\AppData\Local\Temp\arduino_cache_432467\core\core_487b1ced4e7b37e8d402730d0433b7e0.a(i2c_f1.c.o)
                                                  C:\Users\TURBO9~1\AppData\Local\Temp\arduino_cache_432467\core\core_487b1ced4e7b37e8d402730d0433b7e0.a(vector_table.S.o)
__irq_i2c2_ev                                     C:\Users\TURBO9~1\AppData\Local\Temp\arduino_cache_432467\core\core_487b1ced4e7b37e8d402730d0433b7e0.a(i2c_f1.c.o)
                                                  C:\Users\TURBO9~1\AppData\Local\Temp\arduino_cache_432467\core\core_487b1ced4e7b37e8d402730d0433b7e0.a(vector_table.S.o)
__irq_pvd                                         C:\Users\TURBO9~1\AppData\Local\Temp\arduino_cache_432467\core\core_487b1ced4e7b37e8d402730d0433b7e0.a(isrs.S.o)
                                                  C:\Users\TURBO9~1\AppData\Local\Temp\arduino_cache_432467\core\core_487b1ced4e7b37e8d402730d0433b7e0.a(vector_table.S.o)
__irq_rcc                                         C:\Users\TURBO9~1\AppData\Local\Temp\arduino_cache_432467\core\core_487b1ced4e7b37e8d402730d0433b7e0.a(isrs.S.o)
                                                  C:\Users\TURBO9~1\AppData\Local\Temp\arduino_cache_432467\core\core_487b1ced4e7b37e8d402730d0433b7e0.a(vector_table.S.o)
__irq_rtc                                         C:\Users\TURBO9~1\AppData\Local\Temp\arduino_cache_432467\core\core_487b1ced4e7b37e8d402730d0433b7e0.a(isrs.S.o)
                                                  C:\Users\TURBO9~1\AppData\Local\Temp\arduino_cache_432467\core\core_487b1ced4e7b37e8d402730d0433b7e0.a(vector_table.S.o)
__irq_rtcalarm                                    C:\Users\TURBO9~1\AppData\Local\Temp\arduino_cache_432467\core\core_487b1ced4e7b37e8d402730d0433b7e0.a(isrs.S.o)
                                                  C:\Users\TURBO9~1\AppData\Local\Temp\arduino_cache_432467\core\core_487b1ced4e7b37e8d402730d0433b7e0.a(vector_table.S.o)
__irq_spi1                                        C:\Users\TURBO9~1\AppData\Local\Temp\arduino_cache_432467\core\core_487b1ced4e7b37e8d402730d0433b7e0.a(isrs.S.o)
                                                  C:\Users\TURBO9~1\AppData\Local\Temp\arduino_cache_432467\core\core_487b1ced4e7b37e8d402730d0433b7e0.a(vector_table.S.o)
__irq_spi2                                        C:\Users\TURBO9~1\AppData\Local\Temp\arduino_cache_432467\core\core_487b1ced4e7b37e8d402730d0433b7e0.a(isrs.S.o)
                                                  C:\Users\TURBO9~1\AppData\Local\Temp\arduino_cache_432467\core\core_487b1ced4e7b37e8d402730d0433b7e0.a(vector_table.S.o)
__irq_tamper                                      C:\Users\TURBO9~1\AppData\Local\Temp\arduino_cache_432467\core\core_487b1ced4e7b37e8d402730d0433b7e0.a(isrs.S.o)
                                                  C:\Users\TURBO9~1\AppData\Local\Temp\arduino_cache_432467\core\core_487b1ced4e7b37e8d402730d0433b7e0.a(vector_table.S.o)
__irq_tim1_brk                                    C:\Users\TURBO9~1\AppData\Local\Temp\arduino_cache_432467\core\core_487b1ced4e7b37e8d402730d0433b7e0.a(timer.c.o)
                                                  C:\Users\TURBO9~1\AppData\Local\Temp\arduino_cache_432467\core\core_487b1ced4e7b37e8d402730d0433b7e0.a(vector_table.S.o)
__irq_tim1_cc                                     C:\Users\TURBO9~1\AppData\Local\Temp\arduino_cache_432467\core\core_487b1ced4e7b37e8d402730d0433b7e0.a(timer.c.o)
                                                  C:\Users\TURBO9~1\AppData\Local\Temp\arduino_cache_432467\core\core_487b1ced4e7b37e8d402730d0433b7e0.a(vector_table.S.o)
__irq_tim1_trg_com                                C:\Users\TURBO9~1\AppData\Local\Temp\arduino_cache_432467\core\core_487b1ced4e7b37e8d402730d0433b7e0.a(timer.c.o)
                                                  C:\Users\TURBO9~1\AppData\Local\Temp\arduino_cache_432467\core\core_487b1ced4e7b37e8d402730d0433b7e0.a(vector_table.S.o)
__irq_tim1_up                                     C:\Users\TURBO9~1\AppData\Local\Temp\arduino_cache_432467\core\core_487b1ced4e7b37e8d402730d0433b7e0.a(timer.c.o)
                                                  C:\Users\TURBO9~1\AppData\Local\Temp\arduino_cache_432467\core\core_487b1ced4e7b37e8d402730d0433b7e0.a(vector_table.S.o)
__irq_tim2                                        C:\Users\TURBO9~1\AppData\Local\Temp\arduino_cache_432467\core\core_487b1ced4e7b37e8d402730d0433b7e0.a(timer.c.o)
                                                  C:\Users\TURBO9~1\AppData\Local\Temp\arduino_cache_432467\core\core_487b1ced4e7b37e8d402730d0433b7e0.a(vector_table.S.o)
__irq_tim3                                        C:\Users\TURBO9~1\AppData\Local\Temp\arduino_cache_432467\core\core_487b1ced4e7b37e8d402730d0433b7e0.a(timer.c.o)
                                                  C:\Users\TURBO9~1\AppData\Local\Temp\arduino_cache_432467\core\core_487b1ced4e7b37e8d402730d0433b7e0.a(vector_table.S.o)
__irq_tim4                                        C:\Users\TURBO9~1\AppData\Local\Temp\arduino_cache_432467\core\core_487b1ced4e7b37e8d402730d0433b7e0.a(timer.c.o)
                                                  C:\Users\TURBO9~1\AppData\Local\Temp\arduino_cache_432467\core\core_487b1ced4e7b37e8d402730d0433b7e0.a(vector_table.S.o)
__irq_usart1                                      C:\Users\TURBO9~1\AppData\Local\Temp\arduino_cache_432467\core\core_487b1ced4e7b37e8d402730d0433b7e0.a(usart_f1.c.o)
                                                  C:\Users\TURBO9~1\AppData\Local\Temp\arduino_cache_432467\core\core_487b1ced4e7b37e8d402730d0433b7e0.a(vector_table.S.o)
__irq_usart2                                      C:\Users\TURBO9~1\AppData\Local\Temp\arduino_cache_432467\core\core_487b1ced4e7b37e8d402730d0433b7e0.a(usart_f1.c.o)
                                                  C:\Users\TURBO9~1\AppData\Local\Temp\arduino_cache_432467\core\core_487b1ced4e7b37e8d402730d0433b7e0.a(vector_table.S.o)
__irq_usart3                                      C:\Users\TURBO9~1\AppData\Local\Temp\arduino_cache_432467\core\core_487b1ced4e7b37e8d402730d0433b7e0.a(usart_f1.c.o)
                                                  C:\Users\TURBO9~1\AppData\Local\Temp\arduino_cache_432467\core\core_487b1ced4e7b37e8d402730d0433b7e0.a(vector_table.S.o)
__irq_usb_hp_can_tx                               C:\Users\TURBO9~1\AppData\Local\Temp\arduino_cache_432467\core\core_487b1ced4e7b37e8d402730d0433b7e0.a(isrs.S.o)
                                                  C:\Users\TURBO9~1\AppData\Local\Temp\arduino_cache_432467\core\core_487b1ced4e7b37e8d402730d0433b7e0.a(vector_table.S.o)
__irq_usb_lp_can_rx0                              C:\Users\TURBO9~1\AppData\Local\Temp\arduino_cache_432467\core\core_487b1ced4e7b37e8d402730d0433b7e0.a(usb.c.o)
                                                  C:\Users\TURBO9~1\AppData\Local\Temp\arduino_cache_432467\core\core_487b1ced4e7b37e8d402730d0433b7e0.a(vector_table.S.o)
__irq_usbwakeup                                   C:\Users\TURBO9~1\AppData\Local\Temp\arduino_cache_432467\core\core_487b1ced4e7b37e8d402730d0433b7e0.a(isrs.S.o)
                                                  C:\Users\TURBO9~1\AppData\Local\Temp\arduino_cache_432467\core\core_487b1ced4e7b37e8d402730d0433b7e0.a(vector_table.S.o)
__irq_wwdg                                        C:\Users\TURBO9~1\AppData\Local\Temp\arduino_cache_432467\core\core_487b1ced4e7b37e8d402730d0433b7e0.a(isrs.S.o)
                                                  C:\Users\TURBO9~1\AppData\Local\Temp\arduino_cache_432467\core\core_487b1ced4e7b37e8d402730d0433b7e0.a(vector_table.S.o)
__ledf2                                           c:/users/turbo9000/appdata/local/arduino15/packages/arduino/tools/arm-none-eabi-gcc/4.8.3-2014q1/bin/../lib/gcc/arm-none-eabi/4.8.3/armv7-m\libgcc.a(_arm_cmpdf2.o)
__libc_fini                                       c:/users/turbo9000/appdata/local/arduino15/packages/arduino/tools/arm-none-eabi-gcc/4.8.3-2014q1/bin/../lib/gcc/arm-none-eabi/4.8.3/../../../../arm-none-eabi/lib/armv7-m\libc.a(lib_a-__call_atexit.o)
__libc_fini_array                                 c:/users/turbo9000/appdata/local/arduino15/packages/arduino/tools/arm-none-eabi-gcc/4.8.3-2014q1/bin/../lib/gcc/arm-none-eabi/4.8.3/../../../../arm-none-eabi/lib/armv7-m\libc.a(lib_a-fini.o)
                                                  c:/users/turbo9000/appdata/local/arduino15/packages/arduino/tools/arm-none-eabi-gcc/4.8.3-2014q1/bin/../lib/gcc/arm-none-eabi/4.8.3/../../../../arm-none-eabi/lib/armv7-m\libc.a(lib_a-__call_atexit.o)
                                                  c:/users/turbo9000/appdata/local/arduino15/packages/arduino/tools/arm-none-eabi-gcc/4.8.3-2014q1/bin/../lib/gcc/arm-none-eabi/4.8.3/../../../../arm-none-eabi/lib/armv7-m/crt0.o
__libc_init_array                                 c:/users/turbo9000/appdata/local/arduino15/packages/arduino/tools/arm-none-eabi-gcc/4.8.3-2014q1/bin/../lib/gcc/arm-none-eabi/4.8.3/../../../../arm-none-eabi/lib/armv7-m\libc.a(lib_a-init.o)
                                                  C:\Users\TURBO9~1\AppData\Local\Temp\arduino_build_805463\core\wirish\start_c.c.o
                                                  c:/users/turbo9000/appdata/local/arduino15/packages/arduino/tools/arm-none-eabi-gcc/4.8.3-2014q1/bin/../lib/gcc/arm-none-eabi/4.8.3/../../../../arm-none-eabi/lib/armv7-m/crt0.o
__lm_enable_error_usart                           C:\Users\TURBO9~1\AppData\Local\Temp\arduino_cache_432467\core\core_487b1ced4e7b37e8d402730d0433b7e0.a(util.c.o)
__lm_error                                        C:\Users\TURBO9~1\AppData\Local\Temp\arduino_cache_432467\core\core_487b1ced4e7b37e8d402730d0433b7e0.a(util.c.o)
__ltdf2                                           c:/users/turbo9000/appdata/local/arduino15/packages/arduino/tools/arm-none-eabi-gcc/4.8.3-2014q1/bin/../lib/gcc/arm-none-eabi/4.8.3/armv7-m\libgcc.a(_arm_cmpdf2.o)
__msp_init                                        C:\Users\TURBO9~1\AppData\Local\Temp\arduino_cache_432467\core\core_487b1ced4e7b37e8d402730d0433b7e0.a(vector_table.S.o)
                                                  C:\Users\TURBO9~1\AppData\Local\Temp\arduino_build_805463\core\wirish\start.S.o
__muldf3                                          c:/users/turbo9000/appdata/local/arduino15/packages/arduino/tools/arm-none-eabi-gcc/4.8.3-2014q1/bin/../lib/gcc/arm-none-eabi/4.8.3/armv7-m\libgcc.a(_arm_muldivdf3.o)
__nedf2                                           c:/users/turbo9000/appdata/local/arduino15/packages/arduino/tools/arm-none-eabi-gcc/4.8.3-2014q1/bin/../lib/gcc/arm-none-eabi/4.8.3/armv7-m\libgcc.a(_arm_cmpdf2.o)
__preinit_array_end                               c:/users/turbo9000/appdata/local/arduino15/packages/arduino/tools/arm-none-eabi-gcc/4.8.3-2014q1/bin/../lib/gcc/arm-none-eabi/4.8.3/../../../../arm-none-eabi/lib/armv7-m\libc.a(lib_a-init.o)
__preinit_array_start                             c:/users/turbo9000/appdata/local/arduino15/packages/arduino/tools/arm-none-eabi-gcc/4.8.3-2014q1/bin/../lib/gcc/arm-none-eabi/4.8.3/../../../../arm-none-eabi/lib/armv7-m\libc.a(lib_a-init.o)
__register_exitproc                               c:/users/turbo9000/appdata/local/arduino15/packages/arduino/tools/arm-none-eabi-gcc/4.8.3-2014q1/bin/../lib/gcc/arm-none-eabi/4.8.3/../../../../arm-none-eabi/lib/armv7-m\libc.a(lib_a-__atexit.o)
                                                  c:/users/turbo9000/appdata/local/arduino15/packages/arduino/tools/arm-none-eabi-gcc/4.8.3-2014q1/bin/../lib/gcc/arm-none-eabi/4.8.3/../../../../arm-none-eabi/lib/armv7-m\libc.a(lib_a-atexit.o)
__register_frame_info                             c:/users/turbo9000/appdata/local/arduino15/packages/arduino/tools/arm-none-eabi-gcc/4.8.3-2014q1/bin/../lib/gcc/arm-none-eabi/4.8.3/armv7-m/crtbegin.o
__stack                                           c:/users/turbo9000/appdata/local/arduino15/packages/arduino/tools/arm-none-eabi-gcc/4.8.3-2014q1/bin/../lib/gcc/arm-none-eabi/4.8.3/../../../../arm-none-eabi/lib/armv7-m/crt0.o
__start__                                         C:\Users\TURBO9~1\AppData\Local\Temp\arduino_build_805463\core\wirish\start.S.o
__stm32_vector_table                              C:\Users\TURBO9~1\AppData\Local\Temp\arduino_cache_432467\core\core_487b1ced4e7b37e8d402730d0433b7e0.a(vector_table.S.o)
__stm32reservedexception10                        C:\Users\TURBO9~1\AppData\Local\Temp\arduino_cache_432467\core\core_487b1ced4e7b37e8d402730d0433b7e0.a(isrs.S.o)
                                                  C:\Users\TURBO9~1\AppData\Local\Temp\arduino_cache_432467\core\core_487b1ced4e7b37e8d402730d0433b7e0.a(vector_table.S.o)
__stm32reservedexception13                        C:\Users\TURBO9~1\AppData\Local\Temp\arduino_cache_432467\core\core_487b1ced4e7b37e8d402730d0433b7e0.a(isrs.S.o)
                                                  C:\Users\TURBO9~1\AppData\Local\Temp\arduino_cache_432467\core\core_487b1ced4e7b37e8d402730d0433b7e0.a(vector_table.S.o)
__stm32reservedexception7                         C:\Users\TURBO9~1\AppData\Local\Temp\arduino_cache_432467\core\core_487b1ced4e7b37e8d402730d0433b7e0.a(isrs.S.o)
                                                  C:\Users\TURBO9~1\AppData\Local\Temp\arduino_cache_432467\core\core_487b1ced4e7b37e8d402730d0433b7e0.a(vector_table.S.o)
__stm32reservedexception8                         C:\Users\TURBO9~1\AppData\Local\Temp\arduino_cache_432467\core\core_487b1ced4e7b37e8d402730d0433b7e0.a(isrs.S.o)
                                                  C:\Users\TURBO9~1\AppData\Local\Temp\arduino_cache_432467\core\core_487b1ced4e7b37e8d402730d0433b7e0.a(vector_table.S.o)
__stm32reservedexception9                         C:\Users\TURBO9~1\AppData\Local\Temp\arduino_cache_432467\core\core_487b1ced4e7b37e8d402730d0433b7e0.a(isrs.S.o)
                                                  C:\Users\TURBO9~1\AppData\Local\Temp\arduino_cache_432467\core\core_487b1ced4e7b37e8d402730d0433b7e0.a(vector_table.S.o)
__subdf3                                          c:/users/turbo9000/appdata/local/arduino15/packages/arduino/tools/arm-none-eabi-gcc/4.8.3-2014q1/bin/../lib/gcc/arm-none-eabi/4.8.3/armv7-m\libgcc.a(_arm_addsubdf3.o)
__udivdi3                                         c:/users/turbo9000/appdata/local/arduino15/packages/arduino/tools/arm-none-eabi-gcc/4.8.3-2014q1/bin/../lib/gcc/arm-none-eabi/4.8.3/armv7-m\libgcc.a(_udivdi3.o)
                                                  c:/users/turbo9000/appdata/local/arduino15/packages/arduino/tools/arm-none-eabi-gcc/4.8.3-2014q1/bin/../lib/gcc/arm-none-eabi/4.8.3/armv7-m\libgcc.a(bpabi.o)
_close                                            C:\Users\TURBO9~1\AppData\Local\Temp\arduino_build_805463\core\wirish\syscalls.c.o
_dma_addr_type                                    C:\Users\TURBO9~1\AppData\Local\Temp\arduino_cache_432467\core\core_487b1ced4e7b37e8d402730d0433b7e0.a(dma.c.o)
                                                  C:\Users\TURBO9~1\AppData\Local\Temp\arduino_cache_432467\core\core_487b1ced4e7b37e8d402730d0433b7e0.a(dma_f1.c.o)
_exit                                             C:\Users\TURBO9~1\AppData\Local\Temp\arduino_build_805463\core\wirish\syscalls.c.o
                                                  c:/users/turbo9000/appdata/local/arduino15/packages/arduino/tools/arm-none-eabi-gcc/4.8.3-2014q1/bin/../lib/gcc/arm-none-eabi/4.8.3/../../../../arm-none-eabi/lib/armv7-m\libc.a(lib_a-exit.o)
_fail                                             C:\Users\TURBO9~1\AppData\Local\Temp\arduino_cache_432467\core\core_487b1ced4e7b37e8d402730d0433b7e0.a(util.c.o)
_fini                                             c:/users/turbo9000/appdata/local/arduino15/packages/arduino/tools/arm-none-eabi-gcc/4.8.3-2014q1/bin/../lib/gcc/arm-none-eabi/4.8.3/armv7-m/crti.o
                                                  c:/users/turbo9000/appdata/local/arduino15/packages/arduino/tools/arm-none-eabi-gcc/4.8.3-2014q1/bin/../lib/gcc/arm-none-eabi/4.8.3/../../../../arm-none-eabi/lib/armv7-m\libc.a(lib_a-fini.o)
_fstat                                            C:\Users\TURBO9~1\AppData\Local\Temp\arduino_build_805463\core\wirish\syscalls.c.o
_global_impure_ptr                                c:/users/turbo9000/appdata/local/arduino15/packages/arduino/tools/arm-none-eabi-gcc/4.8.3-2014q1/bin/../lib/gcc/arm-none-eabi/4.8.3/../../../../arm-none-eabi/lib/armv7-m\libc.a(lib_a-impure.o)
                                                  c:/users/turbo9000/appdata/local/arduino15/packages/arduino/tools/arm-none-eabi-gcc/4.8.3-2014q1/bin/../lib/gcc/arm-none-eabi/4.8.3/../../../../arm-none-eabi/lib/armv7-m\libc.a(lib_a-__atexit.o)
                                                  c:/users/turbo9000/appdata/local/arduino15/packages/arduino/tools/arm-none-eabi-gcc/4.8.3-2014q1/bin/../lib/gcc/arm-none-eabi/4.8.3/../../../../arm-none-eabi/lib/armv7-m\libc.a(lib_a-__call_atexit.o)
                                                  c:/users/turbo9000/appdata/local/arduino15/packages/arduino/tools/arm-none-eabi-gcc/4.8.3-2014q1/bin/../lib/gcc/arm-none-eabi/4.8.3/../../../../arm-none-eabi/lib/armv7-m\libc.a(lib_a-exit.o)
_i2c_irq_error_handler                            C:\Users\TURBO9~1\AppData\Local\Temp\arduino_cache_432467\core\core_487b1ced4e7b37e8d402730d0433b7e0.a(i2c.c.o)
                                                  C:\Users\TURBO9~1\AppData\Local\Temp\arduino_cache_432467\core\core_487b1ced4e7b37e8d402730d0433b7e0.a(i2c_f1.c.o)
_i2c_irq_handler                                  C:\Users\TURBO9~1\AppData\Local\Temp\arduino_cache_432467\core\core_487b1ced4e7b37e8d402730d0433b7e0.a(i2c.c.o)
                                                  C:\Users\TURBO9~1\AppData\Local\Temp\arduino_cache_432467\core\core_487b1ced4e7b37e8d402730d0433b7e0.a(i2c_f1.c.o)
_i2c_irq_priority_fixup                           C:\Users\TURBO9~1\AppData\Local\Temp\arduino_cache_432467\core\core_487b1ced4e7b37e8d402730d0433b7e0.a(i2c_f1.c.o)
                                                  C:\Users\TURBO9~1\AppData\Local\Temp\arduino_cache_432467\core\core_487b1ced4e7b37e8d402730d0433b7e0.a(i2c.c.o)
_impure_ptr                                       c:/users/turbo9000/appdata/local/arduino15/packages/arduino/tools/arm-none-eabi-gcc/4.8.3-2014q1/bin/../lib/gcc/arm-none-eabi/4.8.3/../../../../arm-none-eabi/lib/armv7-m\libc.a(lib_a-impure.o)
                                                  c:/users/turbo9000/appdata/local/arduino15/packages/arduino/tools/arm-none-eabi-gcc/4.8.3-2014q1/bin/../lib/gcc/arm-none-eabi/4.8.3/../../../../arm-none-eabi/lib/armv7-m\libc.a(lib_a-errno.o)
_init                                             c:/users/turbo9000/appdata/local/arduino15/packages/arduino/tools/arm-none-eabi-gcc/4.8.3-2014q1/bin/../lib/gcc/arm-none-eabi/4.8.3/armv7-m/crti.o
                                                  c:/users/turbo9000/appdata/local/arduino15/packages/arduino/tools/arm-none-eabi-gcc/4.8.3-2014q1/bin/../lib/gcc/arm-none-eabi/4.8.3/../../../../arm-none-eabi/lib/armv7-m\libc.a(lib_a-init.o)
_isatty                                           C:\Users\TURBO9~1\AppData\Local\Temp\arduino_build_805463\core\wirish\syscalls.c.o
_lm_heap_end                                      C:\Users\TURBO9~1\AppData\Local\Temp\arduino_build_805463\core\wirish\syscalls.c.o
_lm_heap_start                                    C:\Users\TURBO9~1\AppData\Local\Temp\arduino_build_805463\core\wirish\syscalls.c.o
_lm_rom_img_cfgp                                  C:\Users\TURBO9~1\AppData\Local\Temp\arduino_build_805463\core\wirish\start_c.c.o
_lseek                                            C:\Users\TURBO9~1\AppData\Local\Temp\arduino_build_805463\core\wirish\syscalls.c.o
_mainCRTStartup                                   c:/users/turbo9000/appdata/local/arduino15/packages/arduino/tools/arm-none-eabi-gcc/4.8.3-2014q1/bin/../lib/gcc/arm-none-eabi/4.8.3/../../../../arm-none-eabi/lib/armv7-m/crt0.o
_open                                             C:\Users\TURBO9~1\AppData\Local\Temp\arduino_build_805463\core\wirish\syscalls.c.o
_parity                                           C:\Users\TURBO9~1\AppData\Local\Temp\arduino_build_805463\sketch\blue_pill_keyboard.ino.cpp.o
_read                                             C:\Users\TURBO9~1\AppData\Local\Temp\arduino_build_805463\core\wirish\syscalls.c.o
_sbrk                                             C:\Users\TURBO9~1\AppData\Local\Temp\arduino_build_805463\core\wirish\syscalls.c.o
_start                                            c:/users/turbo9000/appdata/local/arduino15/packages/arduino/tools/arm-none-eabi-gcc/4.8.3-2014q1/bin/../lib/gcc/arm-none-eabi/4.8.3/../../../../arm-none-eabi/lib/armv7-m/crt0.o
_usart_clock_freq                                 C:\Users\TURBO9~1\AppData\Local\Temp\arduino_cache_432467\core\core_487b1ced4e7b37e8d402730d0433b7e0.a(usart_private.c.o)
                                                  C:\Users\TURBO9~1\AppData\Local\Temp\arduino_cache_432467\core\core_487b1ced4e7b37e8d402730d0433b7e0.a(usart_f1.c.o)
_write                                            C:\Users\TURBO9~1\AppData\Local\Temp\arduino_build_805463\core\wirish\syscalls.c.o
abort                                             C:\Users\TURBO9~1\AppData\Local\Temp\arduino_cache_432467\core\core_487b1ced4e7b37e8d402730d0433b7e0.a(util.c.o)
adc1                                              C:\Users\TURBO9~1\AppData\Local\Temp\arduino_cache_432467\core\core_487b1ced4e7b37e8d402730d0433b7e0.a(adc_f1.c.o)
                                                  C:\Users\TURBO9~1\AppData\Local\Temp\arduino_build_805463\core\board.cpp.o
adc2                                              C:\Users\TURBO9~1\AppData\Local\Temp\arduino_cache_432467\core\core_487b1ced4e7b37e8d402730d0433b7e0.a(adc_f1.c.o)
adc_attach_interrupt                              C:\Users\TURBO9~1\AppData\Local\Temp\arduino_cache_432467\core\core_487b1ced4e7b37e8d402730d0433b7e0.a(adc_f1.c.o)
adc_calibrate                                     C:\Users\TURBO9~1\AppData\Local\Temp\arduino_cache_432467\core\core_487b1ced4e7b37e8d402730d0433b7e0.a(adc_f1.c.o)
adc_config_gpio                                   C:\Users\TURBO9~1\AppData\Local\Temp\arduino_cache_432467\core\core_487b1ced4e7b37e8d402730d0433b7e0.a(adc_f1.c.o)
adc_enable_irq                                    C:\Users\TURBO9~1\AppData\Local\Temp\arduino_cache_432467\core\core_487b1ced4e7b37e8d402730d0433b7e0.a(adc_f1.c.o)
adc_enable_single_swstart                         C:\Users\TURBO9~1\AppData\Local\Temp\arduino_cache_432467\core\core_487b1ced4e7b37e8d402730d0433b7e0.a(adc_f1.c.o)
                                                  C:\Users\TURBO9~1\AppData\Local\Temp\arduino_build_805463\core\wirish\boards.cpp.o
adc_foreach                                       C:\Users\TURBO9~1\AppData\Local\Temp\arduino_cache_432467\core\core_487b1ced4e7b37e8d402730d0433b7e0.a(adc_f1.c.o)
                                                  C:\Users\TURBO9~1\AppData\Local\Temp\arduino_build_805463\core\wirish\boards.cpp.o
adc_init                                          C:\Users\TURBO9~1\AppData\Local\Temp\arduino_cache_432467\core\core_487b1ced4e7b37e8d402730d0433b7e0.a(adc.c.o)
                                                  C:\Users\TURBO9~1\AppData\Local\Temp\arduino_cache_432467\core\core_487b1ced4e7b37e8d402730d0433b7e0.a(adc_f1.c.o)
adc_read                                          C:\Users\TURBO9~1\AppData\Local\Temp\arduino_cache_432467\core\core_487b1ced4e7b37e8d402730d0433b7e0.a(adc.c.o)
adc_set_extsel                                    C:\Users\TURBO9~1\AppData\Local\Temp\arduino_cache_432467\core\core_487b1ced4e7b37e8d402730d0433b7e0.a(adc.c.o)
                                                  C:\Users\TURBO9~1\AppData\Local\Temp\arduino_cache_432467\core\core_487b1ced4e7b37e8d402730d0433b7e0.a(adc_f1.c.o)
adc_set_prescaler                                 C:\Users\TURBO9~1\AppData\Local\Temp\arduino_cache_432467\core\core_487b1ced4e7b37e8d402730d0433b7e0.a(adc_f1.c.o)
                                                  C:\Users\TURBO9~1\AppData\Local\Temp\arduino_build_805463\core\wirish\boards.cpp.o
adc_set_sample_rate                               C:\Users\TURBO9~1\AppData\Local\Temp\arduino_cache_432467\core\core_487b1ced4e7b37e8d402730d0433b7e0.a(adc.c.o)
                                                  C:\Users\TURBO9~1\AppData\Local\Temp\arduino_build_805463\core\wirish\boards.cpp.o
addByteToSendBuffer(unsigned char)                C:\Users\TURBO9~1\AppData\Local\Temp\arduino_build_805463\sketch\blue_pill_keyboard.ino.cpp.o
afio_init                                         C:\Users\TURBO9~1\AppData\Local\Temp\arduino_cache_432467\core\core_487b1ced4e7b37e8d402730d0433b7e0.a(gpio_f1.c.o)
                                                  C:\Users\TURBO9~1\AppData\Local\Temp\arduino_build_805463\core\wirish\boards_setup.cpp.o
afio_remap                                        C:\Users\TURBO9~1\AppData\Local\Temp\arduino_cache_432467\core\core_487b1ced4e7b37e8d402730d0433b7e0.a(gpio_f1.c.o)
                                                  C:\Users\TURBO9~1\AppData\Local\Temp\arduino_cache_432467\core\core_487b1ced4e7b37e8d402730d0433b7e0.a(i2c.c.o)
                                                  C:\Users\TURBO9~1\AppData\Local\Temp\arduino_cache_432467\core\core_487b1ced4e7b37e8d402730d0433b7e0.a(i2c_f1.c.o)
atexit                                            c:/users/turbo9000/appdata/local/arduino15/packages/arduino/tools/arm-none-eabi-gcc/4.8.3-2014q1/bin/../lib/gcc/arm-none-eabi/4.8.3/../../../../arm-none-eabi/lib/armv7-m\libc.a(lib_a-atexit.o)
                                                  c:/users/turbo9000/appdata/local/arduino15/packages/arduino/tools/arm-none-eabi-gcc/4.8.3-2014q1/bin/../lib/gcc/arm-none-eabi/4.8.3/../../../../arm-none-eabi/lib/armv7-m\libc.a(lib_a-__call_atexit.o)
                                                  c:/users/turbo9000/appdata/local/arduino15/packages/arduino/tools/arm-none-eabi-gcc/4.8.3-2014q1/bin/../lib/gcc/arm-none-eabi/4.8.3/../../../../arm-none-eabi/lib/armv7-m/crt0.o
attachInterrupt(unsigned char, void (*)(), ExtIntTriggerMode) C:\Users\TURBO9~1\AppData\Local\Temp\arduino_cache_432467\core\core_487b1ced4e7b37e8d402730d0433b7e0.a(ext_interrupts.cpp.o)
                                                  C:\Users\TURBO9~1\AppData\Local\Temp\arduino_build_805463\sketch\blue_pill_keyboard.ino.cpp.o
attachInterrupt(unsigned char, void (*)(void*), void*, ExtIntTriggerMode) C:\Users\TURBO9~1\AppData\Local\Temp\arduino_cache_432467\core\core_487b1ced4e7b37e8d402730d0433b7e0.a(ext_interrupts.cpp.o)
bitcount                                          C:\Users\TURBO9~1\AppData\Local\Temp\arduino_build_805463\sketch\blue_pill_keyboard.ino.cpp.o
bkp                                               C:\Users\TURBO9~1\AppData\Local\Temp\arduino_cache_432467\core\core_487b1ced4e7b37e8d402730d0433b7e0.a(bkp_f1.c.o)
bkp_disable_writes                                C:\Users\TURBO9~1\AppData\Local\Temp\arduino_cache_432467\core\core_487b1ced4e7b37e8d402730d0433b7e0.a(bkp_f1.c.o)
                                                  C:\Users\TURBO9~1\AppData\Local\Temp\arduino_cache_432467\core\core_487b1ced4e7b37e8d402730d0433b7e0.a(usb_serial.cpp.o)
bkp_enable_writes                                 C:\Users\TURBO9~1\AppData\Local\Temp\arduino_cache_432467\core\core_487b1ced4e7b37e8d402730d0433b7e0.a(bkp_f1.c.o)
                                                  C:\Users\TURBO9~1\AppData\Local\Temp\arduino_cache_432467\core\core_487b1ced4e7b37e8d402730d0433b7e0.a(usb_serial.cpp.o)
bkp_init                                          C:\Users\TURBO9~1\AppData\Local\Temp\arduino_cache_432467\core\core_487b1ced4e7b37e8d402730d0433b7e0.a(bkp_f1.c.o)
                                                  C:\Users\TURBO9~1\AppData\Local\Temp\arduino_cache_432467\core\core_487b1ced4e7b37e8d402730d0433b7e0.a(usb_serial.cpp.o)
bkp_read                                          C:\Users\TURBO9~1\AppData\Local\Temp\arduino_cache_432467\core\core_487b1ced4e7b37e8d402730d0433b7e0.a(bkp_f1.c.o)
bkp_write                                         C:\Users\TURBO9~1\AppData\Local\Temp\arduino_cache_432467\core\core_487b1ced4e7b37e8d402730d0433b7e0.a(bkp_f1.c.o)
                                                  C:\Users\TURBO9~1\AppData\Local\Temp\arduino_cache_432467\core\core_487b1ced4e7b37e8d402730d0433b7e0.a(usb_serial.cpp.o)
boardADCPins                                      C:\Users\TURBO9~1\AppData\Local\Temp\arduino_build_805463\core\board.cpp.o
boardInit()                                       C:\Users\TURBO9~1\AppData\Local\Temp\arduino_build_805463\core\board.cpp.o
boardPWMPins                                      C:\Users\TURBO9~1\AppData\Local\Temp\arduino_build_805463\core\board.cpp.o
boardUsedPins                                     C:\Users\TURBO9~1\AppData\Local\Temp\arduino_build_805463\core\board.cpp.o
                                                  C:\Users\TURBO9~1\AppData\Local\Temp\arduino_build_805463\core\wirish\boards.cpp.o
boardUsesPin(unsigned char)                       C:\Users\TURBO9~1\AppData\Local\Temp\arduino_build_805463\core\wirish\boards.cpp.o
buffer                                            C:\Users\TURBO9~1\AppData\Local\Temp\arduino_build_805463\sketch\blue_pill_keyboard.ino.cpp.o
cgets                                             C:\Users\TURBO9~1\AppData\Local\Temp\arduino_build_805463\core\wirish\syscalls.c.o
clearSendBuffer()                                 C:\Users\TURBO9~1\AppData\Local\Temp\arduino_build_805463\sketch\blue_pill_keyboard.ino.cpp.o
delay(unsigned long)                              C:\Users\TURBO9~1\AppData\Local\Temp\arduino_cache_432467\core\core_487b1ced4e7b37e8d402730d0433b7e0.a(wirish_time.cpp.o)
delayMicroseconds(unsigned long)                  C:\Users\TURBO9~1\AppData\Local\Temp\arduino_cache_432467\core\core_487b1ced4e7b37e8d402730d0433b7e0.a(wirish_time.cpp.o)
                                                  C:\Users\TURBO9~1\AppData\Local\Temp\arduino_build_805463\sketch\blue_pill_keyboard.ino.cpp.o
detachInterrupt(unsigned char)                    C:\Users\TURBO9~1\AppData\Local\Temp\arduino_cache_432467\core\core_487b1ced4e7b37e8d402730d0433b7e0.a(ext_interrupts.cpp.o)
dma_attach_interrupt                              C:\Users\TURBO9~1\AppData\Local\Temp\arduino_cache_432467\core\core_487b1ced4e7b37e8d402730d0433b7e0.a(dma_f1.c.o)
dma_detach_interrupt                              C:\Users\TURBO9~1\AppData\Local\Temp\arduino_cache_432467\core\core_487b1ced4e7b37e8d402730d0433b7e0.a(dma_f1.c.o)
dma_disable                                       C:\Users\TURBO9~1\AppData\Local\Temp\arduino_cache_432467\core\core_487b1ced4e7b37e8d402730d0433b7e0.a(dma_f1.c.o)
dma_enable                                        C:\Users\TURBO9~1\AppData\Local\Temp\arduino_cache_432467\core\core_487b1ced4e7b37e8d402730d0433b7e0.a(dma_f1.c.o)
dma_get_irq_cause                                 C:\Users\TURBO9~1\AppData\Local\Temp\arduino_cache_432467\core\core_487b1ced4e7b37e8d402730d0433b7e0.a(dma_f1.c.o)
dma_init                                          C:\Users\TURBO9~1\AppData\Local\Temp\arduino_cache_432467\core\core_487b1ced4e7b37e8d402730d0433b7e0.a(dma.c.o)
dma_set_mem_addr                                  C:\Users\TURBO9~1\AppData\Local\Temp\arduino_cache_432467\core\core_487b1ced4e7b37e8d402730d0433b7e0.a(dma_f1.c.o)
dma_set_num_transfers                             C:\Users\TURBO9~1\AppData\Local\Temp\arduino_cache_432467\core\core_487b1ced4e7b37e8d402730d0433b7e0.a(dma_f1.c.o)
dma_set_per_addr                                  C:\Users\TURBO9~1\AppData\Local\Temp\arduino_cache_432467\core\core_487b1ced4e7b37e8d402730d0433b7e0.a(dma_f1.c.o)
dma_set_priority                                  C:\Users\TURBO9~1\AppData\Local\Temp\arduino_cache_432467\core\core_487b1ced4e7b37e8d402730d0433b7e0.a(dma_f1.c.o)
dma_setup_transfer                                C:\Users\TURBO9~1\AppData\Local\Temp\arduino_cache_432467\core\core_487b1ced4e7b37e8d402730d0433b7e0.a(dma_f1.c.o)
dma_tube_cfg                                      C:\Users\TURBO9~1\AppData\Local\Temp\arduino_cache_432467\core\core_487b1ced4e7b37e8d402730d0433b7e0.a(dma_f1.c.o)
endWait()                                         C:\Users\TURBO9~1\AppData\Local\Temp\arduino_build_805463\sketch\blue_pill_keyboard.ino.cpp.o
exit                                              c:/users/turbo9000/appdata/local/arduino15/packages/arduino/tools/arm-none-eabi-gcc/4.8.3-2014q1/bin/../lib/gcc/arm-none-eabi/4.8.3/../../../../arm-none-eabi/lib/armv7-m\libc.a(lib_a-exit.o)
                                                  C:\Users\TURBO9~1\AppData\Local\Temp\arduino_build_805463\core\wirish\start_c.c.o
                                                  c:/users/turbo9000/appdata/local/arduino15/packages/arduino/tools/arm-none-eabi-gcc/4.8.3-2014q1/bin/../lib/gcc/arm-none-eabi/4.8.3/../../../../arm-none-eabi/lib/armv7-m/crt0.o
exti_attach_callback                              C:\Users\TURBO9~1\AppData\Local\Temp\arduino_cache_432467\core\core_487b1ced4e7b37e8d402730d0433b7e0.a(exti.c.o)
                                                  C:\Users\TURBO9~1\AppData\Local\Temp\arduino_cache_432467\core\core_487b1ced4e7b37e8d402730d0433b7e0.a(ext_interrupts.cpp.o)
exti_attach_interrupt                             C:\Users\TURBO9~1\AppData\Local\Temp\arduino_cache_432467\core\core_487b1ced4e7b37e8d402730d0433b7e0.a(exti.c.o)
                                                  C:\Users\TURBO9~1\AppData\Local\Temp\arduino_cache_432467\core\core_487b1ced4e7b37e8d402730d0433b7e0.a(ext_interrupts.cpp.o)
exti_detach_interrupt                             C:\Users\TURBO9~1\AppData\Local\Temp\arduino_cache_432467\core\core_487b1ced4e7b37e8d402730d0433b7e0.a(exti.c.o)
                                                  C:\Users\TURBO9~1\AppData\Local\Temp\arduino_cache_432467\core\core_487b1ced4e7b37e8d402730d0433b7e0.a(ext_interrupts.cpp.o)
exti_do_select                                    C:\Users\TURBO9~1\AppData\Local\Temp\arduino_cache_432467\core\core_487b1ced4e7b37e8d402730d0433b7e0.a(exti.c.o)
                                                  C:\Users\TURBO9~1\AppData\Local\Temp\arduino_cache_432467\core\core_487b1ced4e7b37e8d402730d0433b7e0.a(exti_f1.c.o)
exti_select                                       C:\Users\TURBO9~1\AppData\Local\Temp\arduino_cache_432467\core\core_487b1ced4e7b37e8d402730d0433b7e0.a(exti_f1.c.o)
                                                  C:\Users\TURBO9~1\AppData\Local\Temp\arduino_cache_432467\core\core_487b1ced4e7b37e8d402730d0433b7e0.a(exti.c.o)
fgets                                             C:\Users\TURBO9~1\AppData\Local\Temp\arduino_build_805463\core\wirish\syscalls.c.o
flash_set_latency                                 C:\Users\TURBO9~1\AppData\Local\Temp\arduino_cache_432467\core\core_487b1ced4e7b37e8d402730d0433b7e0.a(flash.c.o)
                                                  C:\Users\TURBO9~1\AppData\Local\Temp\arduino_build_805463\core\wirish\boards.cpp.o
free                                              c:/users/turbo9000/appdata/local/arduino15/packages/arduino/tools/arm-none-eabi-gcc/4.8.3-2014q1/bin/../lib/gcc/arm-none-eabi/4.8.3/../../../../arm-none-eabi/lib/armv7-m\libc.a(lib_a-__call_atexit.o)
get_direction                                     C:\Users\TURBO9~1\AppData\Local\Temp\arduino_cache_432467\core\core_487b1ced4e7b37e8d402730d0433b7e0.a(timer.c.o)
getch                                             C:\Users\TURBO9~1\AppData\Local\Temp\arduino_build_805463\core\wirish\syscalls.c.o
gpio_get_mode                                     C:\Users\TURBO9~1\AppData\Local\Temp\arduino_cache_432467\core\core_487b1ced4e7b37e8d402730d0433b7e0.a(gpio_f1.c.o)
gpio_init                                         C:\Users\TURBO9~1\AppData\Local\Temp\arduino_cache_432467\core\core_487b1ced4e7b37e8d402730d0433b7e0.a(gpio.c.o)
                                                  C:\Users\TURBO9~1\AppData\Local\Temp\arduino_cache_432467\core\core_487b1ced4e7b37e8d402730d0433b7e0.a(gpio_f1.c.o)
gpio_init_all                                     C:\Users\TURBO9~1\AppData\Local\Temp\arduino_cache_432467\core\core_487b1ced4e7b37e8d402730d0433b7e0.a(gpio_f1.c.o)
                                                  C:\Users\TURBO9~1\AppData\Local\Temp\arduino_build_805463\core\wirish\boards_setup.cpp.o
gpio_set_mode                                     C:\Users\TURBO9~1\AppData\Local\Temp\arduino_cache_432467\core\core_487b1ced4e7b37e8d402730d0433b7e0.a(gpio_f1.c.o)
                                                  C:\Users\TURBO9~1\AppData\Local\Temp\arduino_cache_432467\core\core_487b1ced4e7b37e8d402730d0433b7e0.a(util.c.o)
                                                  C:\Users\TURBO9~1\AppData\Local\Temp\arduino_cache_432467\core\core_487b1ced4e7b37e8d402730d0433b7e0.a(usb_cdcacm.c.o)
                                                  C:\Users\TURBO9~1\AppData\Local\Temp\arduino_cache_432467\core\core_487b1ced4e7b37e8d402730d0433b7e0.a(usart_f1.c.o)
                                                  C:\Users\TURBO9~1\AppData\Local\Temp\arduino_cache_432467\core\core_487b1ced4e7b37e8d402730d0433b7e0.a(i2c_f1.c.o)
                                                  C:\Users\TURBO9~1\AppData\Local\Temp\arduino_cache_432467\core\core_487b1ced4e7b37e8d402730d0433b7e0.a(adc_f1.c.o)
                                                  C:\Users\TURBO9~1\AppData\Local\Temp\arduino_build_805463\core\wirish\boards_setup.cpp.o
gpioa                                             C:\Users\TURBO9~1\AppData\Local\Temp\arduino_cache_432467\core\core_487b1ced4e7b37e8d402730d0433b7e0.a(gpio_f1.c.o)
                                                  C:\Users\TURBO9~1\AppData\Local\Temp\arduino_build_805463\core\board.cpp.o
gpiob                                             C:\Users\TURBO9~1\AppData\Local\Temp\arduino_cache_432467\core\core_487b1ced4e7b37e8d402730d0433b7e0.a(gpio_f1.c.o)
                                                  C:\Users\TURBO9~1\AppData\Local\Temp\arduino_cache_432467\core\core_487b1ced4e7b37e8d402730d0433b7e0.a(i2c_f1.c.o)
                                                  C:\Users\TURBO9~1\AppData\Local\Temp\arduino_build_805463\core\board.cpp.o
gpioc                                             C:\Users\TURBO9~1\AppData\Local\Temp\arduino_cache_432467\core\core_487b1ced4e7b37e8d402730d0433b7e0.a(gpio_f1.c.o)
                                                  C:\Users\TURBO9~1\AppData\Local\Temp\arduino_build_805463\core\board.cpp.o
gpiod                                             C:\Users\TURBO9~1\AppData\Local\Temp\arduino_cache_432467\core\core_487b1ced4e7b37e8d402730d0433b7e0.a(gpio_f1.c.o)
handleParityErrorFromKeyboard()                   C:\Users\TURBO9~1\AppData\Local\Temp\arduino_build_805463\sketch\blue_pill_keyboard.ino.cpp.o
hardware_init_hook                                c:/users/turbo9000/appdata/local/arduino15/packages/arduino/tools/arm-none-eabi-gcc/4.8.3-2014q1/bin/../lib/gcc/arm-none-eabi/4.8.3/../../../../arm-none-eabi/lib/armv7-m/crt0.o
hasParityError                                    C:\Users\TURBO9~1\AppData\Local\Temp\arduino_build_805463\sketch\blue_pill_keyboard.ino.cpp.o
head                                              C:\Users\TURBO9~1\AppData\Local\Temp\arduino_build_805463\sketch\blue_pill_keyboard.ino.cpp.o
i2c_bus_reset                                     C:\Users\TURBO9~1\AppData\Local\Temp\arduino_cache_432467\core\core_487b1ced4e7b37e8d402730d0433b7e0.a(i2c.c.o)
i2c_config_gpios                                  C:\Users\TURBO9~1\AppData\Local\Temp\arduino_cache_432467\core\core_487b1ced4e7b37e8d402730d0433b7e0.a(i2c_f1.c.o)
                                                  C:\Users\TURBO9~1\AppData\Local\Temp\arduino_cache_432467\core\core_487b1ced4e7b37e8d402730d0433b7e0.a(i2c.c.o)
i2c_init                                          C:\Users\TURBO9~1\AppData\Local\Temp\arduino_cache_432467\core\core_487b1ced4e7b37e8d402730d0433b7e0.a(i2c.c.o)
i2c_master_enable                                 C:\Users\TURBO9~1\AppData\Local\Temp\arduino_cache_432467\core\core_487b1ced4e7b37e8d402730d0433b7e0.a(i2c.c.o)
i2c_master_release_bus                            C:\Users\TURBO9~1\AppData\Local\Temp\arduino_cache_432467\core\core_487b1ced4e7b37e8d402730d0433b7e0.a(i2c_f1.c.o)
                                                  C:\Users\TURBO9~1\AppData\Local\Temp\arduino_cache_432467\core\core_487b1ced4e7b37e8d402730d0433b7e0.a(i2c.c.o)
i2c_master_xfer                                   C:\Users\TURBO9~1\AppData\Local\Temp\arduino_cache_432467\core\core_487b1ced4e7b37e8d402730d0433b7e0.a(i2c.c.o)
incoming                                          C:\Users\TURBO9~1\AppData\Local\Temp\arduino_build_805463\sketch\blue_pill_keyboard.ino.cpp.o
init()                                            C:\Users\TURBO9~1\AppData\Local\Temp\arduino_build_805463\core\wirish\boards.cpp.o
                                                  C:\Users\TURBO9~1\AppData\Local\Temp\arduino_cache_432467\core\core_487b1ced4e7b37e8d402730d0433b7e0.a(main.cpp.o)
initPins()                                        C:\Users\TURBO9~1\AppData\Local\Temp\arduino_build_805463\sketch\blue_pill_keyboard.ino.cpp.o
input_capture_mode                                C:\Users\TURBO9~1\AppData\Local\Temp\arduino_cache_432467\core\core_487b1ced4e7b37e8d402730d0433b7e0.a(timer.c.o)
isatty                                            C:\Users\TURBO9~1\AppData\Local\Temp\arduino_build_805463\core\wirish\syscalls.c.o
loop()                                            C:\Users\TURBO9~1\AppData\Local\Temp\arduino_build_805463\sketch\blue_pill_keyboard.ino.cpp.o
                                                  C:\Users\TURBO9~1\AppData\Local\Temp\arduino_cache_432467\core\core_487b1ced4e7b37e8d402730d0433b7e0.a(main.cpp.o)
main                                              C:\Users\TURBO9~1\AppData\Local\Temp\arduino_cache_432467\core\core_487b1ced4e7b37e8d402730d0433b7e0.a(main.cpp.o)
                                                  C:\Users\TURBO9~1\AppData\Local\Temp\arduino_build_805463\core\wirish\start_c.c.o
                                                  c:/users/turbo9000/appdata/local/arduino15/packages/arduino/tools/arm-none-eabi-gcc/4.8.3-2014q1/bin/../lib/gcc/arm-none-eabi/4.8.3/../../../../arm-none-eabi/lib/armv7-m/crt0.o
malloc                                            c:/users/turbo9000/appdata/local/arduino15/packages/arduino/tools/arm-none-eabi-gcc/4.8.3-2014q1/bin/../lib/gcc/arm-none-eabi/4.8.3/../../../../arm-none-eabi/lib/armv7-m\libc.a(lib_a-__atexit.o)
memset                                            c:/users/turbo9000/appdata/local/arduino15/packages/arduino/tools/arm-none-eabi-gcc/4.8.3-2014q1/bin/../lib/gcc/arm-none-eabi/4.8.3/../../../../arm-none-eabi/lib/armv7-m\libc.a(lib_a-memset.o)
                                                  c:/users/turbo9000/appdata/local/arduino15/packages/arduino/tools/arm-none-eabi-gcc/4.8.3-2014q1/bin/../lib/gcc/arm-none-eabi/4.8.3/../../../../arm-none-eabi/lib/armv7-m/crt0.o
nvic_init                                         C:\Users\TURBO9~1\AppData\Local\Temp\arduino_cache_432467\core\core_487b1ced4e7b37e8d402730d0433b7e0.a(nvic.c.o)
                                                  C:\Users\TURBO9~1\AppData\Local\Temp\arduino_build_805463\core\wirish\boards.cpp.o
nvic_irq_set_priority                             C:\Users\TURBO9~1\AppData\Local\Temp\arduino_cache_432467\core\core_487b1ced4e7b37e8d402730d0433b7e0.a(nvic.c.o)
                                                  C:\Users\TURBO9~1\AppData\Local\Temp\arduino_cache_432467\core\core_487b1ced4e7b37e8d402730d0433b7e0.a(i2c_f1.c.o)
nvic_set_vector_table                             C:\Users\TURBO9~1\AppData\Local\Temp\arduino_cache_432467\core\core_487b1ced4e7b37e8d402730d0433b7e0.a(nvic.c.o)
nvic_sys_reset                                    C:\Users\TURBO9~1\AppData\Local\Temp\arduino_cache_432467\core\core_487b1ced4e7b37e8d402730d0433b7e0.a(nvic.c.o)
                                                  C:\Users\TURBO9~1\AppData\Local\Temp\arduino_cache_432467\core\core_487b1ced4e7b37e8d402730d0433b7e0.a(usb_serial.cpp.o)
outgoing                                          C:\Users\TURBO9~1\AppData\Local\Temp\arduino_build_805463\sketch\blue_pill_keyboard.ino.cpp.o
pInformation                                      C:\Users\TURBO9~1\AppData\Local\Temp\arduino_cache_432467\core\core_487b1ced4e7b37e8d402730d0433b7e0.a(usb_init.c.o)
                                                  C:\Users\TURBO9~1\AppData\Local\Temp\arduino_cache_432467\core\core_487b1ced4e7b37e8d402730d0433b7e0.a(usb_core.c.o)
                                                  C:\Users\TURBO9~1\AppData\Local\Temp\arduino_cache_432467\core\core_487b1ced4e7b37e8d402730d0433b7e0.a(usb_cdcacm.c.o)
                                                  C:\Users\TURBO9~1\AppData\Local\Temp\arduino_cache_432467\core\core_487b1ced4e7b37e8d402730d0433b7e0.a(usb.c.o)
pProperty                                         C:\Users\TURBO9~1\AppData\Local\Temp\arduino_cache_432467\core\core_487b1ced4e7b37e8d402730d0433b7e0.a(usb_init.c.o)
                                                  C:\Users\TURBO9~1\AppData\Local\Temp\arduino_cache_432467\core\core_487b1ced4e7b37e8d402730d0433b7e0.a(usb_core.c.o)
                                                  C:\Users\TURBO9~1\AppData\Local\Temp\arduino_cache_432467\core\core_487b1ced4e7b37e8d402730d0433b7e0.a(usb_cdcacm.c.o)
                                                  C:\Users\TURBO9~1\AppData\Local\Temp\arduino_cache_432467\core\core_487b1ced4e7b37e8d402730d0433b7e0.a(usb.c.o)
pUser_Standard_Requests                           C:\Users\TURBO9~1\AppData\Local\Temp\arduino_cache_432467\core\core_487b1ced4e7b37e8d402730d0433b7e0.a(usb_init.c.o)
                                                  C:\Users\TURBO9~1\AppData\Local\Temp\arduino_cache_432467\core\core_487b1ced4e7b37e8d402730d0433b7e0.a(usb_core.c.o)
                                                  C:\Users\TURBO9~1\AppData\Local\Temp\arduino_cache_432467\core\core_487b1ced4e7b37e8d402730d0433b7e0.a(usb.c.o)
premain()                                         C:\Users\TURBO9~1\AppData\Local\Temp\arduino_cache_432467\core\core_487b1ced4e7b37e8d402730d0433b7e0.a(main.cpp.o)
prev_ms                                           C:\Users\TURBO9~1\AppData\Local\Temp\arduino_build_805463\sketch\blue_pill_keyboard.ino.cpp.o
processByteFromKeyboard()                         C:\Users\TURBO9~1\AppData\Local\Temp\arduino_build_805463\sketch\blue_pill_keyboard.ino.cpp.o
processByteFromSega(unsigned char)                C:\Users\TURBO9~1\AppData\Local\Temp\arduino_build_805463\sketch\blue_pill_keyboard.ino.cpp.o
ps2interrupt()                                    C:\Users\TURBO9~1\AppData\Local\Temp\arduino_build_805463\sketch\blue_pill_keyboard.ino.cpp.o
putch                                             C:\Users\TURBO9~1\AppData\Local\Temp\arduino_build_805463\core\wirish\syscalls.c.o
rcc_clk_disable                                   C:\Users\TURBO9~1\AppData\Local\Temp\arduino_cache_432467\core\core_487b1ced4e7b37e8d402730d0433b7e0.a(rcc_f1.c.o)
                                                  C:\Users\TURBO9~1\AppData\Local\Temp\arduino_build_805463\core\wirish\boards_setup.cpp.o
rcc_clk_enable                                    C:\Users\TURBO9~1\AppData\Local\Temp\arduino_cache_432467\core\core_487b1ced4e7b37e8d402730d0433b7e0.a(rcc_f1.c.o)
                                                  C:\Users\TURBO9~1\AppData\Local\Temp\arduino_cache_432467\core\core_487b1ced4e7b37e8d402730d0433b7e0.a(i2c.c.o)
                                                  C:\Users\TURBO9~1\AppData\Local\Temp\arduino_cache_432467\core\core_487b1ced4e7b37e8d402730d0433b7e0.a(gpio.c.o)
                                                  C:\Users\TURBO9~1\AppData\Local\Temp\arduino_cache_432467\core\core_487b1ced4e7b37e8d402730d0433b7e0.a(dma.c.o)
                                                  C:\Users\TURBO9~1\AppData\Local\Temp\arduino_cache_432467\core\core_487b1ced4e7b37e8d402730d0433b7e0.a(bkp_f1.c.o)
                                                  C:\Users\TURBO9~1\AppData\Local\Temp\arduino_cache_432467\core\core_487b1ced4e7b37e8d402730d0433b7e0.a(usb.c.o)
                                                  C:\Users\TURBO9~1\AppData\Local\Temp\arduino_cache_432467\core\core_487b1ced4e7b37e8d402730d0433b7e0.a(usart.c.o)
                                                  C:\Users\TURBO9~1\AppData\Local\Temp\arduino_cache_432467\core\core_487b1ced4e7b37e8d402730d0433b7e0.a(timer.c.o)
                                                  C:\Users\TURBO9~1\AppData\Local\Temp\arduino_cache_432467\core\core_487b1ced4e7b37e8d402730d0433b7e0.a(gpio_f1.c.o)
                                                  C:\Users\TURBO9~1\AppData\Local\Temp\arduino_cache_432467\core\core_487b1ced4e7b37e8d402730d0433b7e0.a(adc.c.o)
rcc_clk_init                                      C:\Users\TURBO9~1\AppData\Local\Temp\arduino_cache_432467\core\core_487b1ced4e7b37e8d402730d0433b7e0.a(rcc_f1.c.o)
rcc_configure_pll                                 C:\Users\TURBO9~1\AppData\Local\Temp\arduino_cache_432467\core\core_487b1ced4e7b37e8d402730d0433b7e0.a(rcc_f1.c.o)
                                                  C:\Users\TURBO9~1\AppData\Local\Temp\arduino_build_805463\core\wirish\boards.cpp.o
rcc_dev_clk                                       C:\Users\TURBO9~1\AppData\Local\Temp\arduino_cache_432467\core\core_487b1ced4e7b37e8d402730d0433b7e0.a(rcc.c.o)
                                                  C:\Users\TURBO9~1\AppData\Local\Temp\arduino_cache_432467\core\core_487b1ced4e7b37e8d402730d0433b7e0.a(usart_private.c.o)
                                                  C:\Users\TURBO9~1\AppData\Local\Temp\arduino_cache_432467\core\core_487b1ced4e7b37e8d402730d0433b7e0.a(rcc_f1.c.o)
rcc_dev_table                                     C:\Users\TURBO9~1\AppData\Local\Temp\arduino_cache_432467\core\core_487b1ced4e7b37e8d402730d0433b7e0.a(rcc_f1.c.o)
                                                  C:\Users\TURBO9~1\AppData\Local\Temp\arduino_cache_432467\core\core_487b1ced4e7b37e8d402730d0433b7e0.a(rcc.c.o)
rcc_is_clk_on                                     C:\Users\TURBO9~1\AppData\Local\Temp\arduino_cache_432467\core\core_487b1ced4e7b37e8d402730d0433b7e0.a(rcc.c.o)
rcc_is_clk_ready                                  C:\Users\TURBO9~1\AppData\Local\Temp\arduino_cache_432467\core\core_487b1ced4e7b37e8d402730d0433b7e0.a(rcc.c.o)
                                                  C:\Users\TURBO9~1\AppData\Local\Temp\arduino_cache_432467\core\core_487b1ced4e7b37e8d402730d0433b7e0.a(rcc_f1.c.o)
                                                  C:\Users\TURBO9~1\AppData\Local\Temp\arduino_build_805463\core\wirish\boards.cpp.o
rcc_reset_dev                                     C:\Users\TURBO9~1\AppData\Local\Temp\arduino_cache_432467\core\core_487b1ced4e7b37e8d402730d0433b7e0.a(rcc_f1.c.o)
                                                  C:\Users\TURBO9~1\AppData\Local\Temp\arduino_cache_432467\core\core_487b1ced4e7b37e8d402730d0433b7e0.a(i2c.c.o)
                                                  C:\Users\TURBO9~1\AppData\Local\Temp\arduino_cache_432467\core\core_487b1ced4e7b37e8d402730d0433b7e0.a(gpio.c.o)
                                                  C:\Users\TURBO9~1\AppData\Local\Temp\arduino_cache_432467\core\core_487b1ced4e7b37e8d402730d0433b7e0.a(bkp_f1.c.o)
                                                  C:\Users\TURBO9~1\AppData\Local\Temp\arduino_cache_432467\core\core_487b1ced4e7b37e8d402730d0433b7e0.a(timer.c.o)
                                                  C:\Users\TURBO9~1\AppData\Local\Temp\arduino_cache_432467\core\core_487b1ced4e7b37e8d402730d0433b7e0.a(gpio_f1.c.o)
                                                  C:\Users\TURBO9~1\AppData\Local\Temp\arduino_cache_432467\core\core_487b1ced4e7b37e8d402730d0433b7e0.a(adc.c.o)
rcc_set_prescaler                                 C:\Users\TURBO9~1\AppData\Local\Temp\arduino_cache_432467\core\core_487b1ced4e7b37e8d402730d0433b7e0.a(rcc_f1.c.o)
                                                  C:\Users\TURBO9~1\AppData\Local\Temp\arduino_cache_432467\core\core_487b1ced4e7b37e8d402730d0433b7e0.a(adc_f1.c.o)
                                                  C:\Users\TURBO9~1\AppData\Local\Temp\arduino_build_805463\core\wirish\boards_setup.cpp.o
rcc_switch_sysclk                                 C:\Users\TURBO9~1\AppData\Local\Temp\arduino_cache_432467\core\core_487b1ced4e7b37e8d402730d0433b7e0.a(rcc.c.o)
                                                  C:\Users\TURBO9~1\AppData\Local\Temp\arduino_cache_432467\core\core_487b1ced4e7b37e8d402730d0433b7e0.a(rcc_f1.c.o)
                                                  C:\Users\TURBO9~1\AppData\Local\Temp\arduino_build_805463\core\wirish\boards.cpp.o
rcc_turn_off_clk                                  C:\Users\TURBO9~1\AppData\Local\Temp\arduino_cache_432467\core\core_487b1ced4e7b37e8d402730d0433b7e0.a(rcc.c.o)
                                                  C:\Users\TURBO9~1\AppData\Local\Temp\arduino_build_805463\core\wirish\boards.cpp.o
rcc_turn_on_clk                                   C:\Users\TURBO9~1\AppData\Local\Temp\arduino_cache_432467\core\core_487b1ced4e7b37e8d402730d0433b7e0.a(rcc.c.o)
                                                  C:\Users\TURBO9~1\AppData\Local\Temp\arduino_cache_432467\core\core_487b1ced4e7b37e8d402730d0433b7e0.a(rcc_f1.c.o)
                                                  C:\Users\TURBO9~1\AppData\Local\Temp\arduino_build_805463\core\wirish\boards.cpp.o
requestResendFromKeyboard                         C:\Users\TURBO9~1\AppData\Local\Temp\arduino_build_805463\sketch\blue_pill_keyboard.ino.cpp.o
resendTimeout                                     C:\Users\TURBO9~1\AppData\Local\Temp\arduino_build_805463\sketch\blue_pill_keyboard.ino.cpp.o
sendBuffer                                        C:\Users\TURBO9~1\AppData\Local\Temp\arduino_build_805463\sketch\blue_pill_keyboard.ino.cpp.o
sendEnableScanCommand()                           C:\Users\TURBO9~1\AppData\Local\Temp\arduino_build_805463\sketch\blue_pill_keyboard.ino.cpp.o
sendHead                                          C:\Users\TURBO9~1\AppData\Local\Temp\arduino_build_805463\sketch\blue_pill_keyboard.ino.cpp.o
sendNow()                                         C:\Users\TURBO9~1\AppData\Local\Temp\arduino_build_805463\sketch\blue_pill_keyboard.ino.cpp.o
sendResendRequest()                               C:\Users\TURBO9~1\AppData\Local\Temp\arduino_build_805463\sketch\blue_pill_keyboard.ino.cpp.o
sendSpecificByte(unsigned char)                   C:\Users\TURBO9~1\AppData\Local\Temp\arduino_build_805463\sketch\blue_pill_keyboard.ino.cpp.o
sendTail                                          C:\Users\TURBO9~1\AppData\Local\Temp\arduino_build_805463\sketch\blue_pill_keyboard.ino.cpp.o
sendTypematicAndLEDs()                            C:\Users\TURBO9~1\AppData\Local\Temp\arduino_build_805463\sketch\blue_pill_keyboard.ino.cpp.o
send_bit()                                        C:\Users\TURBO9~1\AppData\Local\Temp\arduino_build_805463\sketch\blue_pill_keyboard.ino.cpp.o
setup()                                           C:\Users\TURBO9~1\AppData\Local\Temp\arduino_build_805463\sketch\blue_pill_keyboard.ino.cpp.o
                                                  C:\Users\TURBO9~1\AppData\Local\Temp\arduino_cache_432467\core\core_487b1ced4e7b37e8d402730d0433b7e0.a(main.cpp.o)
software_init_hook                                c:/users/turbo9000/appdata/local/arduino15/packages/arduino/tools/arm-none-eabi-gcc/4.8.3-2014q1/bin/../lib/gcc/arm-none-eabi/4.8.3/../../../../arm-none-eabi/lib/armv7-m/crt0.o
start_c                                           C:\Users\TURBO9~1\AppData\Local\Temp\arduino_build_805463\core\wirish\start_c.c.o
                                                  C:\Users\TURBO9~1\AppData\Local\Temp\arduino_build_805463\core\wirish\start.S.o
strlen                                            c:/users/turbo9000/appdata/local/arduino15/packages/arduino/tools/arm-none-eabi-gcc/4.8.3-2014q1/bin/../lib/gcc/arm-none-eabi/4.8.3/../../../../arm-none-eabi/lib/armv7-m\libc.a(lib_a-strlen.o)
                                                  C:\Users\TURBO9~1\AppData\Local\Temp\arduino_cache_432467\core\core_487b1ced4e7b37e8d402730d0433b7e0.a(usb_serial.cpp.o)
                                                  C:\Users\TURBO9~1\AppData\Local\Temp\arduino_cache_432467\core\core_487b1ced4e7b37e8d402730d0433b7e0.a(Print.cpp.o)
systick_attach_callback                           C:\Users\TURBO9~1\AppData\Local\Temp\arduino_cache_432467\core\core_487b1ced4e7b37e8d402730d0433b7e0.a(systick.c.o)
systick_disable                                   C:\Users\TURBO9~1\AppData\Local\Temp\arduino_cache_432467\core\core_487b1ced4e7b37e8d402730d0433b7e0.a(systick.c.o)
systick_enable                                    C:\Users\TURBO9~1\AppData\Local\Temp\arduino_cache_432467\core\core_487b1ced4e7b37e8d402730d0433b7e0.a(systick.c.o)
systick_init                                      C:\Users\TURBO9~1\AppData\Local\Temp\arduino_cache_432467\core\core_487b1ced4e7b37e8d402730d0433b7e0.a(systick.c.o)
                                                  C:\Users\TURBO9~1\AppData\Local\Temp\arduino_build_805463\core\wirish\boards.cpp.o
systick_uptime_millis                             C:\Users\TURBO9~1\AppData\Local\Temp\arduino_cache_432467\core\core_487b1ced4e7b37e8d402730d0433b7e0.a(i2c.c.o)
                                                  C:\Users\TURBO9~1\AppData\Local\Temp\arduino_cache_432467\core\core_487b1ced4e7b37e8d402730d0433b7e0.a(wirish_time.cpp.o)
                                                  C:\Users\TURBO9~1\AppData\Local\Temp\arduino_cache_432467\core\core_487b1ced4e7b37e8d402730d0433b7e0.a(usb_serial.cpp.o)
                                                  C:\Users\TURBO9~1\AppData\Local\Temp\arduino_cache_432467\core\core_487b1ced4e7b37e8d402730d0433b7e0.a(systick.c.o)
                                                  C:\Users\TURBO9~1\AppData\Local\Temp\arduino_build_805463\sketch\blue_pill_keyboard.ino.cpp.o
tail                                              C:\Users\TURBO9~1\AppData\Local\Temp\arduino_build_805463\sketch\blue_pill_keyboard.ino.cpp.o
throb                                             C:\Users\TURBO9~1\AppData\Local\Temp\arduino_cache_432467\core\core_487b1ced4e7b37e8d402730d0433b7e0.a(util.c.o)
timer1                                            C:\Users\TURBO9~1\AppData\Local\Temp\arduino_cache_432467\core\core_487b1ced4e7b37e8d402730d0433b7e0.a(timer.c.o)
                                                  C:\Users\TURBO9~1\AppData\Local\Temp\arduino_build_805463\core\board.cpp.o
timer2                                            C:\Users\TURBO9~1\AppData\Local\Temp\arduino_cache_432467\core\core_487b1ced4e7b37e8d402730d0433b7e0.a(timer.c.o)
                                                  C:\Users\TURBO9~1\AppData\Local\Temp\arduino_build_805463\core\board.cpp.o
timer3                                            C:\Users\TURBO9~1\AppData\Local\Temp\arduino_cache_432467\core\core_487b1ced4e7b37e8d402730d0433b7e0.a(timer.c.o)
                                                  C:\Users\TURBO9~1\AppData\Local\Temp\arduino_build_805463\core\board.cpp.o
timer4                                            C:\Users\TURBO9~1\AppData\Local\Temp\arduino_cache_432467\core\core_487b1ced4e7b37e8d402730d0433b7e0.a(timer.c.o)
                                                  C:\Users\TURBO9~1\AppData\Local\Temp\arduino_build_805463\core\board.cpp.o
timer_attach_interrupt                            C:\Users\TURBO9~1\AppData\Local\Temp\arduino_cache_432467\core\core_487b1ced4e7b37e8d402730d0433b7e0.a(timer.c.o)
timer_detach_interrupt                            C:\Users\TURBO9~1\AppData\Local\Temp\arduino_cache_432467\core\core_487b1ced4e7b37e8d402730d0433b7e0.a(timer.c.o)
timer_disable                                     C:\Users\TURBO9~1\AppData\Local\Temp\arduino_cache_432467\core\core_487b1ced4e7b37e8d402730d0433b7e0.a(timer.c.o)
timer_foreach                                     C:\Users\TURBO9~1\AppData\Local\Temp\arduino_cache_432467\core\core_487b1ced4e7b37e8d402730d0433b7e0.a(timer.c.o)
                                                  C:\Users\TURBO9~1\AppData\Local\Temp\arduino_build_805463\core\wirish\boards.cpp.o
timer_has_cc_channel                              C:\Users\TURBO9~1\AppData\Local\Temp\arduino_cache_432467\core\core_487b1ced4e7b37e8d402730d0433b7e0.a(timer.c.o)
                                                  C:\Users\TURBO9~1\AppData\Local\Temp\arduino_build_805463\core\wirish\boards.cpp.o
timer_init                                        C:\Users\TURBO9~1\AppData\Local\Temp\arduino_cache_432467\core\core_487b1ced4e7b37e8d402730d0433b7e0.a(timer.c.o)
                                                  C:\Users\TURBO9~1\AppData\Local\Temp\arduino_build_805463\core\wirish\boards.cpp.o
timer_set_mode                                    C:\Users\TURBO9~1\AppData\Local\Temp\arduino_cache_432467\core\core_487b1ced4e7b37e8d402730d0433b7e0.a(timer.c.o)
                                                  C:\Users\TURBO9~1\AppData\Local\Temp\arduino_cache_432467\core\core_487b1ced4e7b37e8d402730d0433b7e0.a(HardwareSerial.cpp.o)
usart_config_gpios_async                          C:\Users\TURBO9~1\AppData\Local\Temp\arduino_cache_432467\core\core_487b1ced4e7b37e8d402730d0433b7e0.a(usart_f1.c.o)
                                                  C:\Users\TURBO9~1\AppData\Local\Temp\arduino_cache_432467\core\core_487b1ced4e7b37e8d402730d0433b7e0.a(HardwareSerial.cpp.o)
usart_disable                                     C:\Users\TURBO9~1\AppData\Local\Temp\arduino_cache_432467\core\core_487b1ced4e7b37e8d402730d0433b7e0.a(usart.c.o)
                                                  C:\Users\TURBO9~1\AppData\Local\Temp\arduino_cache_432467\core\core_487b1ced4e7b37e8d402730d0433b7e0.a(HardwareSerial.cpp.o)
usart_enable                                      C:\Users\TURBO9~1\AppData\Local\Temp\arduino_cache_432467\core\core_487b1ced4e7b37e8d402730d0433b7e0.a(usart.c.o)
                                                  C:\Users\TURBO9~1\AppData\Local\Temp\arduino_cache_432467\core\core_487b1ced4e7b37e8d402730d0433b7e0.a(HardwareSerial.cpp.o)
usart_foreach                                     C:\Users\TURBO9~1\AppData\Local\Temp\arduino_cache_432467\core\core_487b1ced4e7b37e8d402730d0433b7e0.a(usart_f1.c.o)
usart_init                                        C:\Users\TURBO9~1\AppData\Local\Temp\arduino_cache_432467\core\core_487b1ced4e7b37e8d402730d0433b7e0.a(usart.c.o)
                                                  C:\Users\TURBO9~1\AppData\Local\Temp\arduino_cache_432467\core\core_487b1ced4e7b37e8d402730d0433b7e0.a(HardwareSerial.cpp.o)
usart_putudec                                     C:\Users\TURBO9~1\AppData\Local\Temp\arduino_cache_432467\core\core_487b1ced4e7b37e8d402730d0433b7e0.a(usart.c.o)
                                                  C:\Users\TURBO9~1\AppData\Local\Temp\arduino_cache_432467\core\core_487b1ced4e7b37e8d402730d0433b7e0.a(util.c.o)
usart_rx                                          C:\Users\TURBO9~1\AppData\Local\Temp\arduino_cache_432467\core\core_487b1ced4e7b37e8d402730d0433b7e0.a(usart.c.o)
usart_set_baud_rate                               C:\Users\TURBO9~1\AppData\Local\Temp\arduino_cache_432467\core\core_487b1ced4e7b37e8d402730d0433b7e0.a(usart_f1.c.o)
                                                  C:\Users\TURBO9~1\AppData\Local\Temp\arduino_cache_432467\core\core_487b1ced4e7b37e8d402730d0433b7e0.a(HardwareSerial.cpp.o)
usart_tx                                          C:\Users\TURBO9~1\AppData\Local\Temp\arduino_cache_432467\core\core_487b1ced4e7b37e8d402730d0433b7e0.a(usart.c.o)
                                                  C:\Users\TURBO9~1\AppData\Local\Temp\arduino_cache_432467\core\core_487b1ced4e7b37e8d402730d0433b7e0.a(util.c.o)
                                                  C:\Users\TURBO9~1\AppData\Local\Temp\arduino_cache_432467\core\core_487b1ced4e7b37e8d402730d0433b7e0.a(HardwareSerial.cpp.o)
usb_cdcacm_data_available                         C:\Users\TURBO9~1\AppData\Local\Temp\arduino_cache_432467\core\core_487b1ced4e7b37e8d402730d0433b7e0.a(usb_cdcacm.c.o)
                                                  C:\Users\TURBO9~1\AppData\Local\Temp\arduino_cache_432467\core\core_487b1ced4e7b37e8d402730d0433b7e0.a(usb_serial.cpp.o)
usb_cdcacm_disable                                C:\Users\TURBO9~1\AppData\Local\Temp\arduino_cache_432467\core\core_487b1ced4e7b37e8d402730d0433b7e0.a(usb_cdcacm.c.o)
                                                  C:\Users\TURBO9~1\AppData\Local\Temp\arduino_cache_432467\core\core_487b1ced4e7b37e8d402730d0433b7e0.a(usb_serial.cpp.o)
usb_cdcacm_enable                                 C:\Users\TURBO9~1\AppData\Local\Temp\arduino_cache_432467\core\core_487b1ced4e7b37e8d402730d0433b7e0.a(usb_cdcacm.c.o)
                                                  C:\Users\TURBO9~1\AppData\Local\Temp\arduino_cache_432467\core\core_487b1ced4e7b37e8d402730d0433b7e0.a(usb_serial.cpp.o)
usb_cdcacm_get_baud                               C:\Users\TURBO9~1\AppData\Local\Temp\arduino_cache_432467\core\core_487b1ced4e7b37e8d402730d0433b7e0.a(usb_cdcacm.c.o)
usb_cdcacm_get_dtr                                C:\Users\TURBO9~1\AppData\Local\Temp\arduino_cache_432467\core\core_487b1ced4e7b37e8d402730d0433b7e0.a(usb_cdcacm.c.o)
                                                  C:\Users\TURBO9~1\AppData\Local\Temp\arduino_cache_432467\core\core_487b1ced4e7b37e8d402730d0433b7e0.a(usb_serial.cpp.o)
usb_cdcacm_get_line_coding                        C:\Users\TURBO9~1\AppData\Local\Temp\arduino_cache_432467\core\core_487b1ced4e7b37e8d402730d0433b7e0.a(usb_cdcacm.c.o)
usb_cdcacm_get_n_data_bits                        C:\Users\TURBO9~1\AppData\Local\Temp\arduino_cache_432467\core\core_487b1ced4e7b37e8d402730d0433b7e0.a(usb_cdcacm.c.o)
usb_cdcacm_get_parity                             C:\Users\TURBO9~1\AppData\Local\Temp\arduino_cache_432467\core\core_487b1ced4e7b37e8d402730d0433b7e0.a(usb_cdcacm.c.o)
usb_cdcacm_get_pending                            C:\Users\TURBO9~1\AppData\Local\Temp\arduino_cache_432467\core\core_487b1ced4e7b37e8d402730d0433b7e0.a(usb_cdcacm.c.o)
                                                  C:\Users\TURBO9~1\AppData\Local\Temp\arduino_cache_432467\core\core_487b1ced4e7b37e8d402730d0433b7e0.a(usb_serial.cpp.o)
usb_cdcacm_get_rts                                C:\Users\TURBO9~1\AppData\Local\Temp\arduino_cache_432467\core\core_487b1ced4e7b37e8d402730d0433b7e0.a(usb_cdcacm.c.o)
                                                  C:\Users\TURBO9~1\AppData\Local\Temp\arduino_cache_432467\core\core_487b1ced4e7b37e8d402730d0433b7e0.a(usb_serial.cpp.o)
usb_cdcacm_get_stop_bits                          C:\Users\TURBO9~1\AppData\Local\Temp\arduino_cache_432467\core\core_487b1ced4e7b37e8d402730d0433b7e0.a(usb_cdcacm.c.o)
usb_cdcacm_is_transmitting                        C:\Users\TURBO9~1\AppData\Local\Temp\arduino_cache_432467\core\core_487b1ced4e7b37e8d402730d0433b7e0.a(usb_cdcacm.c.o)
usb_cdcacm_peek                                   C:\Users\TURBO9~1\AppData\Local\Temp\arduino_cache_432467\core\core_487b1ced4e7b37e8d402730d0433b7e0.a(usb_cdcacm.c.o)
                                                  C:\Users\TURBO9~1\AppData\Local\Temp\arduino_cache_432467\core\core_487b1ced4e7b37e8d402730d0433b7e0.a(usb_serial.cpp.o)
usb_cdcacm_peek_char                              C:\Users\TURBO9~1\AppData\Local\Temp\arduino_cache_432467\core\core_487b1ced4e7b37e8d402730d0433b7e0.a(usb_cdcacm.c.o)
usb_cdcacm_peek_ex                                C:\Users\TURBO9~1\AppData\Local\Temp\arduino_cache_432467\core\core_487b1ced4e7b37e8d402730d0433b7e0.a(usb_cdcacm.c.o)
                                                  C:\Users\TURBO9~1\AppData\Local\Temp\arduino_cache_432467\core\core_487b1ced4e7b37e8d402730d0433b7e0.a(usb_serial.cpp.o)
usb_cdcacm_putc                                   C:\Users\TURBO9~1\AppData\Local\Temp\arduino_cache_432467\core\core_487b1ced4e7b37e8d402730d0433b7e0.a(usb_cdcacm.c.o)
usb_cdcacm_rx                                     C:\Users\TURBO9~1\AppData\Local\Temp\arduino_cache_432467\core\core_487b1ced4e7b37e8d402730d0433b7e0.a(usb_cdcacm.c.o)
                                                  C:\Users\TURBO9~1\AppData\Local\Temp\arduino_cache_432467\core\core_487b1ced4e7b37e8d402730d0433b7e0.a(usb_serial.cpp.o)
usb_cdcacm_set_hooks                              C:\Users\TURBO9~1\AppData\Local\Temp\arduino_cache_432467\core\core_487b1ced4e7b37e8d402730d0433b7e0.a(usb_cdcacm.c.o)
                                                  C:\Users\TURBO9~1\AppData\Local\Temp\arduino_cache_432467\core\core_487b1ced4e7b37e8d402730d0433b7e0.a(usb_serial.cpp.o)
usb_cdcacm_tx                                     C:\Users\TURBO9~1\AppData\Local\Temp\arduino_cache_432467\core\core_487b1ced4e7b37e8d402730d0433b7e0.a(usb_cdcacm.c.o)
                                                  C:\Users\TURBO9~1\AppData\Local\Temp\arduino_cache_432467\core\core_487b1ced4e7b37e8d402730d0433b7e0.a(usb_serial.cpp.o)
usb_cdcacm_tx_available                           C:\Users\TURBO9~1\AppData\Local\Temp\arduino_cache_432467\core\core_487b1ced4e7b37e8d402730d0433b7e0.a(usb_cdcacm.c.o)
                                                  C:\Users\TURBO9~1\AppData\Local\Temp\arduino_cache_432467\core\core_487b1ced4e7b37e8d402730d0433b7e0.a(usb_serial.cpp.o)
usb_init_usblib                                   C:\Users\TURBO9~1\AppData\Local\Temp\arduino_cache_432467\core\core_487b1ced4e7b37e8d402730d0433b7e0.a(usb.c.o)
                                                  C:\Users\TURBO9~1\AppData\Local\Temp\arduino_cache_432467\core\core_487b1ced4e7b37e8d402730d0433b7e0.a(usb_cdcacm.c.o)
usb_power_off                                     C:\Users\TURBO9~1\AppData\Local\Temp\arduino_cache_432467\core\core_487b1ced4e7b37e8d402730d0433b7e0.a(usb.c.o)
                                                  C:\Users\TURBO9~1\AppData\Local\Temp\arduino_cache_432467\core\core_487b1ced4e7b37e8d402730d0433b7e0.a(usb_cdcacm.c.o)
usb_set_ep_rx_count                               C:\Users\TURBO9~1\AppData\Local\Temp\arduino_cache_432467\core\core_487b1ced4e7b37e8d402730d0433b7e0.a(usb_reg_map.c.o)
                                                  C:\Users\TURBO9~1\AppData\Local\Temp\arduino_cache_432467\core\core_487b1ced4e7b37e8d402730d0433b7e0.a(usb_cdcacm.c.o)
vtable for HardwareSerial                         C:\Users\TURBO9~1\AppData\Local\Temp\arduino_cache_432467\core\core_487b1ced4e7b37e8d402730d0433b7e0.a(HardwareSerial.cpp.o)
vtable for Print                                  C:\Users\TURBO9~1\AppData\Local\Temp\arduino_cache_432467\core\core_487b1ced4e7b37e8d402730d0433b7e0.a(Print.cpp.o)
vtable for Stream                                 C:\Users\TURBO9~1\AppData\Local\Temp\arduino_cache_432467\core\core_487b1ced4e7b37e8d402730d0433b7e0.a(HardwareSerial.cpp.o)
                                                  C:\Users\TURBO9~1\AppData\Local\Temp\arduino_cache_432467\core\core_487b1ced4e7b37e8d402730d0433b7e0.a(usb_serial.cpp.o)
vtable for USBSerial                              C:\Users\TURBO9~1\AppData\Local\Temp\arduino_cache_432467\core\core_487b1ced4e7b37e8d402730d0433b7e0.a(usb_serial.cpp.o)
wInterrupt_Mask                                   C:\Users\TURBO9~1\AppData\Local\Temp\arduino_cache_432467\core\core_487b1ced4e7b37e8d402730d0433b7e0.a(usb_init.c.o)
waitForPin(short, short)                          C:\Users\TURBO9~1\AppData\Local\Temp\arduino_build_805463\sketch\blue_pill_keyboard.ino.cpp.o
waitingForAck                                     C:\Users\TURBO9~1\AppData\Local\Temp\arduino_build_805463\sketch\blue_pill_keyboard.ino.cpp.o
waitingForResetAck                                C:\Users\TURBO9~1\AppData\Local\Temp\arduino_build_805463\sketch\blue_pill_keyboard.ino.cpp.o
wirish::priv::board_reset_pll()                   C:\Users\TURBO9~1\AppData\Local\Temp\arduino_build_805463\core\wirish\boards_setup.cpp.o
                                                  C:\Users\TURBO9~1\AppData\Local\Temp\arduino_build_805463\core\wirish\boards.cpp.o
wirish::priv::board_setup_clock_prescalers()      C:\Users\TURBO9~1\AppData\Local\Temp\arduino_build_805463\core\wirish\boards_setup.cpp.o
                                                  C:\Users\TURBO9~1\AppData\Local\Temp\arduino_build_805463\core\wirish\boards.cpp.o
wirish::priv::board_setup_gpio()                  C:\Users\TURBO9~1\AppData\Local\Temp\arduino_build_805463\core\wirish\boards_setup.cpp.o
                                                  C:\Users\TURBO9~1\AppData\Local\Temp\arduino_build_805463\core\wirish\boards.cpp.o
wirish::priv::board_setup_usb()                   C:\Users\TURBO9~1\AppData\Local\Temp\arduino_build_805463\core\wirish\boards_setup.cpp.o
                                                  C:\Users\TURBO9~1\AppData\Local\Temp\arduino_build_805463\core\wirish\boards.cpp.o
wirish::priv::series_init()                       C:\Users\TURBO9~1\AppData\Local\Temp\arduino_build_805463\core\wirish\boards_setup.cpp.o
                                                  C:\Users\TURBO9~1\AppData\Local\Temp\arduino_build_805463\core\wirish\boards.cpp.o
wirish::priv::w_adc_pre                           C:\Users\TURBO9~1\AppData\Local\Temp\arduino_build_805463\core\wirish\boards_setup.cpp.o
                                                  C:\Users\TURBO9~1\AppData\Local\Temp\arduino_build_805463\core\wirish\boards.cpp.o
wirish::priv::w_adc_smp                           C:\Users\TURBO9~1\AppData\Local\Temp\arduino_build_805463\core\wirish\boards_setup.cpp.o
                                                  C:\Users\TURBO9~1\AppData\Local\Temp\arduino_build_805463\core\wirish\boards.cpp.o
wirish::priv::w_board_pll_cfg                     C:\Users\TURBO9~1\AppData\Local\Temp\arduino_build_805463\core\wirish\boards_setup.cpp.o
                                                  C:\Users\TURBO9~1\AppData\Local\Temp\arduino_build_805463\core\wirish\boards.cpp.o
yield                                             C:\Users\TURBO9~1\AppData\Local\Temp\arduino_cache_432467\core\core_487b1ced4e7b37e8d402730d0433b7e0.a(hooks.c.o)
                                                  C:\Users\TURBO9~1\AppData\Local\Temp\arduino_cache_432467\core\core_487b1ced4e7b37e8d402730d0433b7e0.a(wirish_time.cpp.o)
